
/tmp/tmp.pR7oiljovK/comp3.s.obj:     file format elf32-littleriscv


Disassembly of section .text:

00010080 <_start>:
   10080:	84000137          	lui	x2,0x84000
   10084:	fe010113          	addi	x2,x2,-32 # 83ffffe0 <__BSS_END__+0x83fea088>
   10088:	00112e23          	sw	x1,28(x2)
   1008c:	00812c23          	sw	x8,24(x2)
   10090:	00912a23          	sw	x9,20(x2)
   10094:	01212823          	sw	x18,16(x2)
   10098:	01a12623          	sw	x26,12(x2)
   1009c:	feff0d37          	lui	x26,0xfeff0
   100a0:	efed0d13          	addi	x26,x26,-258 # fefefefe <__BSS_END__+0xfefd9fa6>
   100a4:	00001417          	auipc	x8,0x1
   100a8:	39c40413          	addi	x8,x8,924 # 11440 <raw_data>
   100ac:	00bae937          	lui	x18,0xbae
   100b0:	bad90913          	addi	x18,x18,-1107 # badbad <__BSS_END__+0xb97c55>
   100b4:	00003497          	auipc	x9,0x3
   100b8:	c8c48493          	addi	x9,x9,-884 # 12d40 <raw_data+0x1900>
   100bc:	00040513          	mv	x10,x8
   100c0:	00000097          	auipc	x1,0x0
   100c4:	064080e7          	jalr	100(x1) # 10124 <process_execution>
   100c8:	00050463          	beqz	x10,100d0 <_start+0x50>
   100cc:	00090d13          	mv	x26,x18
   100d0:	02040413          	addi	x8,x8,32
   100d4:	fe9414e3          	bne	x8,x9,100bc <_start+0x3c>
   100d8:	00003417          	auipc	x8,0x3
   100dc:	c6840413          	addi	x8,x8,-920 # 12d40 <raw_data+0x1900>
   100e0:	00bae937          	lui	x18,0xbae
   100e4:	bad90913          	addi	x18,x18,-1107 # badbad <__BSS_END__+0xb97c55>
   100e8:	00005497          	auipc	x9,0x5
   100ec:	a5848493          	addi	x9,x9,-1448 # 14b40 <raw_data+0x3700>
   100f0:	00040513          	mv	x10,x8
   100f4:	00000097          	auipc	x1,0x0
   100f8:	030080e7          	jalr	48(x1) # 10124 <process_execution>
   100fc:	00050463          	beqz	x10,10104 <_start+0x84>
   10100:	00090d13          	mv	x26,x18
   10104:	06040413          	addi	x8,x8,96
   10108:	fe9414e3          	bne	x8,x9,100f0 <_start+0x70>
   1010c:	feff07b7          	lui	x15,0xfeff0
   10110:	efe78793          	addi	x15,x15,-258 # fefefefe <__BSS_END__+0xfefd9fa6>
   10114:	00fd1663          	bne	x26,x15,10120 <_start+0xa0>
   10118:	600d6d37          	lui	x26,0x600d6
   1011c:	00dd0d13          	addi	x26,x26,13 # 600d600d <__BSS_END__+0x600c00b5>
   10120:	0000006f          	j	10120 <_start+0xa0>

00010124 <process_execution>:
   10124:	00054703          	lbu	x14,0(x10)
   10128:	04e00793          	li	x15,78
   1012c:	00f70a63          	beq	x14,x15,10140 <process_execution+0x1c>
   10130:	00154683          	lbu	x13,1(x10)
   10134:	04500713          	li	x14,69
   10138:	00000793          	li	x15,0
   1013c:	22e69863          	bne	x13,x14,1036c <process_execution+0x248>
   10140:	fe010113          	addi	x2,x2,-32
   10144:	00112e23          	sw	x1,28(x2)
   10148:	00812c23          	sw	x8,24(x2)
   1014c:	00912a23          	sw	x9,20(x2)
   10150:	01212823          	sw	x18,16(x2)
   10154:	01312623          	sw	x19,12(x2)
   10158:	01412423          	sw	x20,8(x2)
   1015c:	00050413          	mv	x8,x10
   10160:	00854783          	lbu	x15,8(x10)
   10164:	00954503          	lbu	x10,9(x10)
   10168:	00851513          	slli	x10,x10,0x8
   1016c:	00f56533          	or	x10,x10,x15
   10170:	00a44783          	lbu	x15,10(x8)
   10174:	01079793          	slli	x15,x15,0x10
   10178:	00a7e7b3          	or	x15,x15,x10
   1017c:	00b44503          	lbu	x10,11(x8)
   10180:	01851513          	slli	x10,x10,0x18
   10184:	00f56533          	or	x10,x10,x15
   10188:	00000097          	auipc	x1,0x0
   1018c:	1ec080e7          	jalr	492(x1) # 10374 <__bswapsi2>
   10190:	00050493          	mv	x9,x10
   10194:	01144703          	lbu	x14,17(x8)
   10198:	01244783          	lbu	x15,18(x8)
   1019c:	00879793          	slli	x15,x15,0x8
   101a0:	00e7e7b3          	or	x15,x15,x14
   101a4:	00879913          	slli	x18,x15,0x8
   101a8:	0087d793          	srli	x15,x15,0x8
   101ac:	00f967b3          	or	x15,x18,x15
   101b0:	01079913          	slli	x18,x15,0x10
   101b4:	01095913          	srli	x18,x18,0x10
   101b8:	01444503          	lbu	x10,20(x8)
   101bc:	01544783          	lbu	x15,21(x8)
   101c0:	00879793          	slli	x15,x15,0x8
   101c4:	00a7e7b3          	or	x15,x15,x10
   101c8:	00879a13          	slli	x20,x15,0x8
   101cc:	0087d793          	srli	x15,x15,0x8
   101d0:	00fa67b3          	or	x15,x20,x15
   101d4:	01079a13          	slli	x20,x15,0x10
   101d8:	010a5a13          	srli	x20,x20,0x10
   101dc:	01644703          	lbu	x14,22(x8)
   101e0:	01744783          	lbu	x15,23(x8)
   101e4:	00879793          	slli	x15,x15,0x8
   101e8:	00e7e7b3          	or	x15,x15,x14
   101ec:	00879993          	slli	x19,x15,0x8
   101f0:	0087d793          	srli	x15,x15,0x8
   101f4:	00f9e7b3          	or	x15,x19,x15
   101f8:	01079993          	slli	x19,x15,0x10
   101fc:	0109d993          	srli	x19,x19,0x10
   10200:	01844783          	lbu	x15,24(x8)
   10204:	01944503          	lbu	x10,25(x8)
   10208:	00851513          	slli	x10,x10,0x8
   1020c:	00f56533          	or	x10,x10,x15
   10210:	01a44783          	lbu	x15,26(x8)
   10214:	01079793          	slli	x15,x15,0x10
   10218:	00a7e7b3          	or	x15,x15,x10
   1021c:	01b44503          	lbu	x10,27(x8)
   10220:	01851513          	slli	x10,x10,0x18
   10224:	01c44703          	lbu	x14,28(x8)
   10228:	01d44583          	lbu	x11,29(x8)
   1022c:	00859593          	slli	x11,x11,0x8
   10230:	00e5e5b3          	or	x11,x11,x14
   10234:	01e44703          	lbu	x14,30(x8)
   10238:	01071713          	slli	x14,x14,0x10
   1023c:	00b76733          	or	x14,x14,x11
   10240:	01f44583          	lbu	x11,31(x8)
   10244:	01859593          	slli	x11,x11,0x18
   10248:	00f56533          	or	x10,x10,x15
   1024c:	00e5e5b3          	or	x11,x11,x14
   10250:	00000097          	auipc	x1,0x0
   10254:	158080e7          	jalr	344(x1) # 103a8 <__bswapdi2>
   10258:	00050613          	mv	x12,x10
   1025c:	00058713          	mv	x14,x11
   10260:	00006797          	auipc	x15,0x6
   10264:	cf078793          	addi	x15,x15,-784 # 15f50 <old_message_id>
   10268:	0047a683          	lw	x13,4(x15)
   1026c:	00b6e863          	bltu	x13,x11,1027c <process_execution+0x158>
   10270:	0cb69a63          	bne	x13,x11,10344 <process_execution+0x220>
   10274:	0007a783          	lw	x15,0(x15)
   10278:	0ca7f663          	bgeu	x15,x10,10344 <process_execution+0x220>
   1027c:	00006797          	auipc	x15,0x6
   10280:	cd478793          	addi	x15,x15,-812 # 15f50 <old_message_id>
   10284:	00a7a023          	sw	x10,0(x15)
   10288:	00b7a223          	sw	x11,4(x15)
   1028c:	00006717          	auipc	x14,0x6
   10290:	cbc70713          	addi	x14,x14,-836 # 15f48 <contracts_processed>
   10294:	00072783          	lw	x15,0(x14)
   10298:	012787b3          	add	x15,x15,x18
   1029c:	00f72023          	sw	x15,0(x14)
   102a0:	00244783          	lbu	x15,2(x8)
   102a4:	05000713          	li	x14,80
   102a8:	02e79863          	bne	x15,x14,102d8 <process_execution+0x1b4>
   102ac:	00344703          	lbu	x14,3(x8)
   102b0:	04200793          	li	x15,66
   102b4:	412006b3          	neg	x13,x18
   102b8:	00f71463          	bne	x14,x15,102c0 <process_execution+0x19c>
   102bc:	00090693          	mv	x13,x18
   102c0:	00006717          	auipc	x14,0x6
   102c4:	c8470713          	addi	x14,x14,-892 # 15f44 <puts_count>
   102c8:	00072783          	lw	x15,0(x14)
   102cc:	00d787b3          	add	x15,x15,x13
   102d0:	00f72023          	sw	x15,0(x14)
   102d4:	0340006f          	j	10308 <process_execution+0x1e4>
   102d8:	04300713          	li	x14,67
   102dc:	02e79663          	bne	x15,x14,10308 <process_execution+0x1e4>
   102e0:	00344703          	lbu	x14,3(x8)
   102e4:	05300793          	li	x15,83
   102e8:	00090693          	mv	x13,x18
   102ec:	00f71463          	bne	x14,x15,102f4 <process_execution+0x1d0>
   102f0:	412006b3          	neg	x13,x18
   102f4:	00006717          	auipc	x14,0x6
   102f8:	c4c70713          	addi	x14,x14,-948 # 15f40 <calls_count>
   102fc:	00072783          	lw	x15,0(x14)
   10300:	00d787b3          	add	x15,x15,x13
   10304:	00f72023          	sw	x15,0(x14)
   10308:	41448533          	sub	x10,x9,x20
   1030c:	41f55713          	srai	x14,x10,0x1f
   10310:	00a747b3          	xor	x15,x14,x10
   10314:	40e787b3          	sub	x15,x15,x14
   10318:	00279793          	slli	x15,x15,0x2
   1031c:	00a00713          	li	x14,10
   10320:	01377463          	bgeu	x14,x19,10328 <process_execution+0x204>
   10324:	00179793          	slli	x15,x15,0x1
   10328:	01344683          	lbu	x13,19(x8)
   1032c:	00100713          	li	x14,1
   10330:	00e69463          	bne	x13,x14,10338 <process_execution+0x214>
   10334:	ffe78793          	addi	x15,x15,-2
   10338:	0657a793          	slti	x15,x15,101
   1033c:	0017c793          	xori	x15,x15,1
   10340:	0080006f          	j	10348 <process_execution+0x224>
   10344:	00000793          	li	x15,0
   10348:	00078513          	mv	x10,x15
   1034c:	01c12083          	lw	x1,28(x2)
   10350:	01812403          	lw	x8,24(x2)
   10354:	01412483          	lw	x9,20(x2)
   10358:	01012903          	lw	x18,16(x2)
   1035c:	00c12983          	lw	x19,12(x2)
   10360:	00812a03          	lw	x20,8(x2)
   10364:	02010113          	addi	x2,x2,32
   10368:	00008067          	ret
   1036c:	00078513          	mv	x10,x15
   10370:	00008067          	ret

00010374 <__bswapsi2>:
   10374:	01855793          	srli	x15,x10,0x18
   10378:	01851713          	slli	x14,x10,0x18
   1037c:	00e7e7b3          	or	x15,x15,x14
   10380:	00855713          	srli	x14,x10,0x8
   10384:	000106b7          	lui	x13,0x10
   10388:	f0068693          	addi	x13,x13,-256 # ff00 <_start-0x180>
   1038c:	00d77733          	and	x14,x14,x13
   10390:	00e7e7b3          	or	x15,x15,x14
   10394:	00851513          	slli	x10,x10,0x8
   10398:	00ff0737          	lui	x14,0xff0
   1039c:	00e57533          	and	x10,x10,x14
   103a0:	00a7e533          	or	x10,x15,x10
   103a4:	00008067          	ret

000103a8 <__bswapdi2>:
   103a8:	0185d693          	srli	x13,x11,0x18
   103ac:	01851793          	slli	x15,x10,0x18
   103b0:	0085d713          	srli	x14,x11,0x8
   103b4:	000108b7          	lui	x17,0x10
   103b8:	f0088893          	addi	x17,x17,-256 # ff00 <_start-0x180>
   103bc:	01177733          	and	x14,x14,x17
   103c0:	00e6e6b3          	or	x13,x13,x14
   103c4:	00859613          	slli	x12,x11,0x8
   103c8:	01855713          	srli	x14,x10,0x18
   103cc:	00e66733          	or	x14,x12,x14
   103d0:	00ff0637          	lui	x12,0xff0
   103d4:	00e67733          	and	x14,x12,x14
   103d8:	00e6e6b3          	or	x13,x13,x14
   103dc:	01859593          	slli	x11,x11,0x18
   103e0:	00855713          	srli	x14,x10,0x8
   103e4:	00e5e733          	or	x14,x11,x14
   103e8:	ff000337          	lui	x6,0xff000
   103ec:	00e37333          	and	x6,x6,x14
   103f0:	00851e13          	slli	x28,x10,0x8
   103f4:	01855713          	srli	x14,x10,0x18
   103f8:	00e7e733          	or	x14,x15,x14
   103fc:	00855793          	srli	x15,x10,0x8
   10400:	00058813          	mv	x16,x11
   10404:	00b7e833          	or	x16,x15,x11
   10408:	011877b3          	and	x15,x16,x17
   1040c:	00f767b3          	or	x15,x14,x15
   10410:	01c675b3          	and	x11,x12,x28
   10414:	0066e533          	or	x10,x13,x6
   10418:	00b7e5b3          	or	x11,x15,x11
   1041c:	00008067          	ret
   10420:	0000                	unimp
	...

Disassembly of section .data:

00011440 <raw_data>:
   11440:	454e                	lw	x10,208(x2)
   11442:	4250                	lw	x12,4(x12)
   11444:	9d5e                	add	x26,x26,x23
   11446:	000022cf          	fnmadd.s	f5,f0,f0,f0,rdn
   1144a:	f70d                	bnez	x14,11374 <__bswapdi2+0xfcc>
   1144c:	20495457          	0x20495457
   11450:	0020                	addi	x8,x2,8
   11452:	021c                	addi	x15,x2,256
   11454:	eb0d                	bnez	x14,11486 <raw_data+0x46>
   11456:	0c00                	addi	x8,x2,528
   11458:	0500                	addi	x8,x2,640
   1145a:	c1b519eb          	0xc1b519eb
   1145e:	a26e                	fsd	f27,256(x2)
   11460:	454e                	lw	x10,208(x2)
   11462:	5350                	lw	x12,36(x14)
   11464:	9d5e                	add	x26,x26,x23
   11466:	000025cf          	fnmadd.s	f11,f0,f0,f0,rdn
   1146a:	cb05                	beqz	x14,1149a <raw_data+0x5a>
   1146c:	4141                	li	x2,16
   1146e:	4c50                	lw	x12,28(x8)
   11470:	0020                	addi	x8,x2,8
   11472:	da05020f          	0xda05020f
   11476:	0300                	addi	x8,x2,384
   11478:	0600                	addi	x8,x2,768
   1147a:	2a55                	jal	1162e <raw_data+0x1ee>
   1147c:	d754                	sw	x13,44(x14)
   1147e:	454eba17          	auipc	x20,0x454eb
   11482:	4250                	lw	x12,4(x12)
   11484:	9d5e                	add	x26,x26,x23
   11486:	00002bcf          	fnmadd.s	f23,f0,f0,f0,rdn
   1148a:	6e0a                	flw	f28,128(x2)
   1148c:	20585053          	0x20585053
   11490:	0020                	addi	x8,x2,8
   11492:	011e                	slli	x2,x2,0x7
   11494:	610a                	flw	f2,128(x2)
   11496:	0200                	addi	x8,x2,256
   11498:	0700                	addi	x8,x2,896
   1149a:	7398                	flw	f14,32(x15)
   1149c:	af51                	j	11c30 <raw_data+0x7f0>
   1149e:	454e52b7          	lui	x5,0x454e5
   114a2:	9d5e4243          	0x9d5e4243
   114a6:	000030cf          	fnmadd.s	f1,f0,f0,f0,rup
   114aa:	c629                	beqz	x12,114f4 <raw_data+0xb4>
   114ac:	4141                	li	x2,16
   114ae:	4c50                	lw	x12,28(x8)
   114b0:	0020                	addi	x8,x2,8
   114b2:	cb29020f          	0xcb29020f
   114b6:	0700                	addi	x8,x2,896
   114b8:	0900                	addi	x8,x2,144
   114ba:	b25d                	j	10e60 <__bswapdi2+0xab8>
   114bc:	053e                	slli	x10,x10,0xf
   114be:	f439                	bnez	x8,1140c <__bswapdi2+0x1064>
   114c0:	454e                	lw	x10,208(x2)
   114c2:	5350                	lw	x12,36(x14)
   114c4:	9d5e                	add	x26,x26,x23
   114c6:	000039cf          	fnmadd.s	f19,f0,f0,f0,rup
   114ca:	50537b23          	0x50537b23
   114ce:	2058                	fld	f14,128(x8)
   114d0:	0020                	addi	x8,x2,8
   114d2:	83230123          	sb	x18,-2014(x6) # fefff822 <__BSS_END__+0xfefe98ca>
   114d6:	0b00                	addi	x8,x2,400
   114d8:	0a00                	addi	x8,x2,272
   114da:	5184                	lw	x9,32(x11)
   114dc:	dc7a                	sw	x30,56(x2)
   114de:	5bfe                	lw	x23,252(x2)
   114e0:	454e                	lw	x10,208(x2)
   114e2:	9d5e4243          	0x9d5e4243
   114e6:	00003ecf          	fnmadd.s	f29,f0,f0,f0,rup
   114ea:	50532f03          	lw	x30,1285(x6)
   114ee:	2059                	jal	11574 <raw_data+0x134>
   114f0:	0020                	addi	x8,x2,8
   114f2:	0222                	slli	x4,x4,0x8
   114f4:	06002e03          	lw	x28,96(x0) # 60 <_start-0x10020>
   114f8:	0a00                	addi	x8,x2,272
   114fa:	c4ed                	beqz	x9,115e4 <raw_data+0x1a4>
   114fc:	0a6a                	slli	x20,x20,0x1a
   114fe:	1718                	addi	x14,x2,928
   11500:	454e                	lw	x10,208(x2)
   11502:	5350                	lw	x12,36(x14)
   11504:	9d5e                	add	x26,x26,x23
   11506:	000042cf          	fnmadd.s	f5,f0,f0,f0,rmm
   1150a:	4614                	lw	x13,8(x12)
   1150c:	20595053          	0x20595053
   11510:	0020                	addi	x8,x2,8
   11512:	4714011b          	0x4714011b
   11516:	0900                	addi	x8,x2,144
   11518:	0d00                	addi	x8,x2,656
   1151a:	7538                	flw	f14,104(x10)
   1151c:	6ba9                	lui	x23,0xa
   1151e:	9e39                	0x9e39
   11520:	454e                	lw	x10,208(x2)
   11522:	9d5e4243          	0x9d5e4243
   11526:	00004bcf          	fnmadd.s	f23,f0,f0,f0,rmm
   1152a:	482a                	lw	x16,136(x2)
   1152c:	20595053          	0x20595053
   11530:	0020                	addi	x8,x2,8
   11532:	0105                	addi	x2,x2,1
   11534:	452a                	lw	x10,136(x2)
   11536:	0700                	addi	x8,x2,896
   11538:	1200                	addi	x8,x2,288
   1153a:	e881                	bnez	x9,1154a <raw_data+0x10a>
   1153c:	210a                	fld	f2,128(x2)
   1153e:	454e27e7          	0x454e27e7
   11542:	4250                	lw	x12,4(x12)
   11544:	9d5e                	add	x26,x26,x23
   11546:	00004ecf          	fnmadd.s	f29,f0,f0,f0,rmm
   1154a:	7a00                	flw	f8,48(x12)
   1154c:	464e                	lw	x12,208(x2)
   1154e:	584c                	lw	x11,52(x8)
   11550:	0020                	addi	x8,x2,8
   11552:	87000107          	0x87000107
   11556:	0a00                	addi	x8,x2,272
   11558:	1300                	addi	x8,x2,416
   1155a:	8cc0                	0x8cc0
   1155c:	75d6                	flw	f11,116(x2)
   1155e:	f608                	fsw	f10,40(x12)
   11560:	454e                	lw	x10,208(x2)
   11562:	9d5e5343          	0x9d5e5343
   11566:	000058cf          	fnmadd.s	f17,f0,f0,f0,unknown
   1156a:	f62d                	bnez	x12,114d4 <raw_data+0x94>
   1156c:	474f4f47          	fmsub.q	f30,f30,f20,f8,rmm
   11570:	004c                	addi	x11,x2,4
   11572:	0104                	addi	x9,x2,128
   11574:	fb2d                	bnez	x14,114e6 <raw_data+0xa6>
   11576:	0400                	addi	x8,x2,512
   11578:	1500                	addi	x8,x2,672
   1157a:	48a8                	lw	x10,80(x9)
   1157c:	140e                	slli	x8,x8,0x23
   1157e:	86f8                	0x86f8
   11580:	454e                	lw	x10,208(x2)
   11582:	4250                	lw	x12,4(x12)
   11584:	9d5e                	add	x26,x26,x23
   11586:	000061cf          	fnmadd.s	f3,f0,f0,f0,unknown
   1158a:	4c30                	lw	x12,88(x8)
   1158c:	474f4f47          	fmsub.q	f30,f30,f20,f8,rmm
   11590:	004c                	addi	x11,x2,4
   11592:	0122                	slli	x2,x2,0x8
   11594:	5730                	lw	x12,104(x14)
   11596:	0c00                	addi	x8,x2,528
   11598:	1700                	addi	x8,x2,928
   1159a:	be5d                	j	11150 <__bswapdi2+0xda8>
   1159c:	40a9                	li	x1,10
   1159e:	454e93bb          	0x454e93bb
   115a2:	4250                	lw	x12,4(x12)
   115a4:	9d5e                	add	x26,x26,x23
   115a6:	00006dcf          	fnmadd.s	f27,f0,f0,f0,unknown
   115aa:	7934                	flw	f13,112(x10)
   115ac:	4141                	li	x2,16
   115ae:	4c50                	lw	x12,28(x8)
   115b0:	0020                	addi	x8,x2,8
   115b2:	0114                	addi	x13,x2,128
   115b4:	6634                	flw	f13,72(x12)
   115b6:	0900                	addi	x8,x2,144
   115b8:	1a00                	addi	x8,x2,304
   115ba:	47f8                	lw	x14,76(x15)
   115bc:	8cb9                	xor	x9,x9,x14
   115be:	01be                	slli	x3,x3,0xf
   115c0:	454e                	lw	x10,208(x2)
   115c2:	9d5e4243          	0x9d5e4243
   115c6:	00007bcf          	fnmadd.s	f23,f0,f0,f0
   115ca:	641e                	flw	f8,196(x2)
   115cc:	4141                	li	x2,16
   115ce:	4c50                	lw	x12,28(x8)
   115d0:	0020                	addi	x8,x2,8
   115d2:	0119                	addi	x2,x2,6
   115d4:	6d1e                	flw	f26,196(x2)
   115d6:	0400                	addi	x8,x2,512
   115d8:	2100                	fld	f8,0(x10)
   115da:	b89ae743          	fmadd.s	f14,f21,f9,f23,unknown
   115de:	454ec7ab          	0x454ec7ab
   115e2:	4250                	lw	x12,4(x12)
   115e4:	9d5e                	add	x26,x26,x23
   115e6:	000084cf          	fnmadd.s	f9,f1,f0,f0,rne
   115ea:	1f0d                	addi	x30,x30,-29
   115ec:	4141                	li	x2,16
   115ee:	4c50                	lw	x12,28(x8)
   115f0:	0020                	addi	x8,x2,8
   115f2:	2c0d021b          	0x2c0d021b
   115f6:	0900                	addi	x8,x2,144
   115f8:	2100                	fld	f8,0(x10)
   115fa:	388239d7          	0x388239d7
   115fe:	32e9                	jal	10fc8 <__bswapdi2+0xc20>
   11600:	454e                	lw	x10,208(x2)
   11602:	9d5e5343          	0x9d5e5343
   11606:	00008ecf          	fnmadd.s	f29,f1,f0,f0,rne
   1160a:	7c06                	flw	f24,96(x2)
   1160c:	464e                	lw	x12,208(x2)
   1160e:	584c                	lw	x11,52(x8)
   11610:	0020                	addi	x8,x2,8
   11612:	0109                	addi	x2,x2,2
   11614:	8006                	c.mv	x0,x1
   11616:	0800                	addi	x8,x2,16
   11618:	2200                	fld	f8,0(x12)
   1161a:	ef4bc4db          	0xef4bc4db
   1161e:	386c                	fld	f11,240(x8)
   11620:	454e                	lw	x10,208(x2)
   11622:	9d5e5343          	0x9d5e5343
   11626:	000097cf          	fnmadd.s	f15,f1,f0,f0,rtz
   1162a:	0e18                	addi	x14,x2,784
   1162c:	20585053          	0x20585053
   11630:	0020                	addi	x8,x2,8
   11632:	020e                	slli	x4,x4,0x3
   11634:	0218                	addi	x14,x2,256
   11636:	0d00                	addi	x8,x2,656
   11638:	2300                	fld	f8,0(x14)
   1163a:	3079                	jal	10ec8 <__bswapdi2+0xb20>
   1163c:	7cab4747          	0x7cab4747
   11640:	454e                	lw	x10,208(x2)
   11642:	9d5e4243          	0x9d5e4243
   11646:	0000abcf          	fnmadd.s	f23,f1,f0,f0,rdn
   1164a:	c924                	sw	x9,80(x10)
   1164c:	4d59                	li	x26,22
   1164e:	2020                	fld	f8,64(x8)
   11650:	0020                	addi	x8,x2,8
   11652:	c9240113          	addi	x2,x8,-878
   11656:	0500                	addi	x8,x2,640
   11658:	2800                	fld	f8,16(x8)
   1165a:	417a5e23          	0x417a5e23
   1165e:	ef98                	fsw	f14,24(x15)
   11660:	454e                	lw	x10,208(x2)
   11662:	5350                	lw	x12,36(x14)
   11664:	9d5e                	add	x26,x26,x23
   11666:	0000afcf          	fnmadd.s	f31,f1,f0,f0,rdn
   1166a:	ce00                	sw	x8,24(x12)
   1166c:	464e                	lw	x12,208(x2)
   1166e:	584c                	lw	x11,52(x8)
   11670:	0020                	addi	x8,x2,8
   11672:	0118                	addi	x14,x2,128
   11674:	cb00                	sw	x8,16(x14)
   11676:	0d00                	addi	x8,x2,656
   11678:	2900                	fld	f8,16(x10)
   1167a:	96cc4dab          	0x96cc4dab
   1167e:	3319                	jal	11384 <__bswapdi2+0xfdc>
   11680:	454e                	lw	x10,208(x2)
   11682:	9d5e4243          	0x9d5e4243
   11686:	0000b6cf          	fnmadd.s	f13,f1,f0,f0,rup
   1168a:	4a1d                	li	x20,7
   1168c:	5345                	li	x6,-15
   1168e:	2020                	fld	f8,64(x8)
   11690:	0020                	addi	x8,x2,8
   11692:	0220                	addi	x8,x2,264
   11694:	421d                	li	x4,7
   11696:	0500                	addi	x8,x2,640
   11698:	2d00                	fld	f8,24(x10)
   1169a:	fe6c                	fsw	f11,124(x12)
   1169c:	246a                	fld	f8,152(x2)
   1169e:	7ab5                	lui	x21,0xfffed
   116a0:	454e                	lw	x10,208(x2)
   116a2:	4250                	lw	x12,4(x12)
   116a4:	9d5e                	add	x26,x26,x23
   116a6:	0000b9cf          	fnmadd.s	f19,f1,f0,f0,rup
   116aa:	830d                	srli	x14,x14,0x3
   116ac:	4141                	li	x2,16
   116ae:	4c50                	lw	x12,28(x8)
   116b0:	0020                	addi	x8,x2,8
   116b2:	920d0123          	sb	x0,-1758(x26)
   116b6:	0800                	addi	x8,x2,16
   116b8:	3000                	fld	f8,32(x8)
   116ba:	b6e2                	fsd	f24,360(x2)
   116bc:	4c15ccef          	jal	x25,6e37c <__BSS_END__+0x58424>
   116c0:	454e                	lw	x10,208(x2)
   116c2:	4250                	lw	x12,4(x12)
   116c4:	9d5e                	add	x26,x26,x23
   116c6:	0000c1cf          	fnmadd.s	f3,f1,f0,f0,rmm
   116ca:	8c0c                	0x8c0c
   116cc:	5345                	li	x6,-15
   116ce:	2020                	fld	f8,64(x8)
   116d0:	0020                	addi	x8,x2,8
   116d2:	8a0c0123          	sb	x0,-1886(x24)
   116d6:	0d00                	addi	x8,x2,656
   116d8:	3400                	fld	f8,40(x8)
   116da:	bf12                	fsd	f4,440(x2)
   116dc:	ed69                	bnez	x10,117b6 <raw_data+0x376>
   116de:	2f11                	jal	11df2 <raw_data+0x9b2>
   116e0:	454e                	lw	x10,208(x2)
   116e2:	5350                	lw	x12,36(x14)
   116e4:	9d5e                	add	x26,x26,x23
   116e6:	0000c9cf          	fnmadd.s	f19,f1,f0,f0,rmm
   116ea:	4c19                	li	x24,6
   116ec:	4d59                	li	x26,22
   116ee:	2020                	fld	f8,64(x8)
   116f0:	0020                	addi	x8,x2,8
   116f2:	5c190107          	0x5c190107
   116f6:	0500                	addi	x8,x2,640
   116f8:	3400                	fld	f8,40(x8)
   116fa:	1c93b7c3          	0x1c93b7c3
   116fe:	8411                	srai	x8,x8,0x4
   11700:	454e                	lw	x10,208(x2)
   11702:	9d5e4243          	0x9d5e4243
   11706:	0000cfcf          	fnmadd.s	f31,f1,f0,f0,rmm
   1170a:	f539                	bnez	x10,11658 <raw_data+0x218>
   1170c:	5345                	li	x6,-15
   1170e:	2020                	fld	f8,64(x8)
   11710:	0020                	addi	x8,x2,8
   11712:	021d                	addi	x4,x4,7
   11714:	f439                	bnez	x8,11662 <raw_data+0x222>
   11716:	0500                	addi	x8,x2,640
   11718:	3700                	fld	f8,40(x14)
   1171a:	955e                	add	x10,x10,x23
   1171c:	f926                	fsw	f9,176(x2)
   1171e:	2694                	fld	f13,8(x13)
   11720:	454e                	lw	x10,208(x2)
   11722:	9d5e5343          	0x9d5e5343
   11726:	0000d2cf          	fnmadd.s	f5,f1,f0,f0,unknown
   1172a:	53450103          	lb	x2,1332(x10)
   1172e:	2020                	fld	f8,64(x8)
   11730:	0020                	addi	x8,x2,8
   11732:	0114                	addi	x13,x2,128
   11734:	05000b03          	lb	x22,80(x0) # 50 <_start-0x10030>
   11738:	3a00                	fld	f8,48(x12)
   1173a:	a795                	j	11e9e <raw_data+0xa5e>
   1173c:	db89                	beqz	x15,1164e <raw_data+0x20e>
   1173e:	074a                	slli	x14,x14,0x12
   11740:	454e                	lw	x10,208(x2)
   11742:	9d5e5343          	0x9d5e5343
   11746:	0000dccf          	fnmadd.s	f25,f1,f0,f0,unknown
   1174a:	0020                	addi	x8,x2,8
   1174c:	464e                	lw	x12,208(x2)
   1174e:	584c                	lw	x11,52(x8)
   11750:	0020                	addi	x8,x2,8
   11752:	0221                	addi	x4,x4,8
   11754:	fe1f 0800 3c00      	0x3c000800fe1f
   1175a:	623e                	flw	f4,204(x2)
   1175c:	9b8c                	0x9b8c
   1175e:	44fd                	li	x9,31
   11760:	454e                	lw	x10,208(x2)
   11762:	9d5e4243          	0x9d5e4243
   11766:	0000e6cf          	fnmadd.s	f13,f1,f0,f0,unknown
   1176a:	371d                	jal	11690 <raw_data+0x250>
   1176c:	4141                	li	x2,16
   1176e:	4c50                	lw	x12,28(x8)
   11770:	0020                	addi	x8,x2,8
   11772:	0214                	addi	x13,x2,256
   11774:	391d                	jal	113aa <__bswapdi2+0x1002>
   11776:	0600                	addi	x8,x2,768
   11778:	3d00                	fld	f8,56(x10)
   1177a:	8302391b          	0x8302391b
   1177e:	943d                	srai	x8,x8,0x2f
   11780:	454e                	lw	x10,208(x2)
   11782:	5350                	lw	x12,36(x14)
   11784:	9d5e                	add	x26,x26,x23
   11786:	0000ebcf          	fnmadd.s	f23,f1,f0,f0,unknown
   1178a:	4141322f          	0x4141322f
   1178e:	4c50                	lw	x12,28(x8)
   11790:	0020                	addi	x8,x2,8
   11792:	2d2f0123          	sb	x18,706(x30)
   11796:	0800                	addi	x8,x2,16
   11798:	3e00                	fld	f8,56(x12)
   1179a:	3724                	fld	f9,104(x14)
   1179c:	d81a                	sw	x6,48(x2)
   1179e:	7b7a                	flw	f22,188(x2)
   117a0:	454e                	lw	x10,208(x2)
   117a2:	4250                	lw	x12,4(x12)
   117a4:	9d5e                	add	x26,x26,x23
   117a6:	0000f2cf          	fnmadd.s	f5,f1,f0,f0
   117aa:	6b05                	lui	x22,0x1
   117ac:	20595053          	0x20595053
   117b0:	0020                	addi	x8,x2,8
   117b2:	011e                	slli	x2,x2,0x7
   117b4:	6d05                	lui	x26,0x1
   117b6:	0400                	addi	x8,x2,512
   117b8:	4100                	lw	x8,0(x10)
   117ba:	c446                	sw	x17,8(x2)
   117bc:	93ca                	add	x7,x7,x18
   117be:	30fe                	fld	f1,504(x2)
   117c0:	454e                	lw	x10,208(x2)
   117c2:	5350                	lw	x12,36(x14)
   117c4:	9d5e                	add	x26,x26,x23
   117c6:	0000fbcf          	fnmadd.s	f23,f1,f0,f0
   117ca:	50530413          	addi	x8,x6,1285
   117ce:	2058                	fld	f14,128(x8)
   117d0:	0020                	addi	x8,x2,8
   117d2:	020d                	addi	x4,x4,3
   117d4:	07000d13          	li	x26,112
   117d8:	4200                	lw	x8,0(x12)
   117da:	aeb6                	fsd	f13,344(x2)
   117dc:	45bc                	lw	x15,72(x11)
   117de:	eca9                	bnez	x9,11838 <raw_data+0x3f8>
   117e0:	454e                	lw	x10,208(x2)
   117e2:	9d5e5343          	0x9d5e5343
   117e6:	0cd0                	addi	x12,x2,596
   117e8:	0000                	unimp
   117ea:	192e                	slli	x18,x18,0x2b
   117ec:	464e                	lw	x12,208(x2)
   117ee:	584c                	lw	x11,52(x8)
   117f0:	0020                	addi	x8,x2,8
   117f2:	1e2e0107          	0x1e2e0107
   117f6:	0300                	addi	x8,x2,384
   117f8:	4900                	lw	x8,16(x10)
   117fa:	3b0e                	fld	f22,224(x2)
   117fc:	48ed                	li	x17,27
   117fe:	c498                	sw	x14,8(x9)
   11800:	454e                	lw	x10,208(x2)
   11802:	4250                	lw	x12,4(x12)
   11804:	9d5e                	add	x26,x26,x23
   11806:	15d0                	addi	x12,x2,740
   11808:	0000                	unimp
   1180a:	8b2e                	mv	x22,x11
   1180c:	4d59                	li	x26,22
   1180e:	2020                	fld	f8,64(x8)
   11810:	0020                	addi	x8,x2,8
   11812:	9d2e020b          	0x9d2e020b
   11816:	0800                	addi	x8,x2,16
   11818:	4b00                	lw	x8,16(x14)
   1181a:	2279                	jal	119a8 <raw_data+0x568>
   1181c:	7489                	lui	x9,0xfffe2
   1181e:	a584                	fsd	f9,8(x11)
   11820:	454e                	lw	x10,208(x2)
   11822:	4250                	lw	x12,4(x12)
   11824:	9d5e                	add	x26,x26,x23
   11826:	1cd0                	addi	x12,x2,628
   11828:	0000                	unimp
   1182a:	53458c27          	0x53458c27
   1182e:	2020                	fld	f8,64(x8)
   11830:	0020                	addi	x8,x2,8
   11832:	0112                	slli	x2,x2,0x4
   11834:	05007827          	0x5007827
   11838:	4e00                	lw	x8,24(x12)
   1183a:	3646                	fld	f12,112(x2)
   1183c:	f5b745cf          	0xf5b745cf
   11840:	454e                	lw	x10,208(x2)
   11842:	4250                	lw	x12,4(x12)
   11844:	9d5e                	add	x26,x26,x23
   11846:	26d0                	fld	f12,136(x13)
   11848:	0000                	unimp
   1184a:	1d19                	addi	x26,x26,-26
   1184c:	5345                	li	x6,-15
   1184e:	2020                	fld	f8,64(x8)
   11850:	0020                	addi	x8,x2,8
   11852:	22190113          	addi	x2,x18,545
   11856:	0300                	addi	x8,x2,384
   11858:	5000                	lw	x8,32(x8)
   1185a:	4e5a                	lw	x28,148(x2)
   1185c:	9a2c                	0x9a2c
   1185e:	590c                	lw	x11,48(x10)
   11860:	454e                	lw	x10,208(x2)
   11862:	9d5e4243          	0x9d5e4243
   11866:	2ad0                	fld	f12,144(x13)
   11868:	0000                	unimp
   1186a:	2205                	jal	1198a <raw_data+0x54a>
   1186c:	2046                	fld	f0,80(x2)
   1186e:	2020                	fld	f8,64(x8)
   11870:	0020                	addi	x8,x2,8
   11872:	2d050107          	0x2d050107
   11876:	0500                	addi	x8,x2,640
   11878:	5100                	lw	x8,32(x10)
   1187a:	e798                	fsw	f14,8(x15)
   1187c:	7204                	flw	f9,32(x12)
   1187e:	3bc2                	fld	f23,48(x2)
   11880:	454e                	lw	x10,208(x2)
   11882:	5350                	lw	x12,36(x14)
   11884:	9d5e                	add	x26,x26,x23
   11886:	34d0                	fld	f12,168(x9)
   11888:	0000                	unimp
   1188a:	54571427          	0x54571427
   1188e:	2049                	jal	11910 <raw_data+0x4d0>
   11890:	0020                	addi	x8,x2,8
   11892:	0114                	addi	x13,x2,128
   11894:	03000427          	0x3000427
   11898:	5400                	lw	x8,40(x8)
   1189a:	22f9                	jal	11a68 <raw_data+0x628>
   1189c:	5d41                	li	x26,-16
   1189e:	454ea22f          	amoor.w.aq	x4,x20,(x29)
   118a2:	5350                	lw	x12,36(x14)
   118a4:	9d5e                	add	x26,x26,x23
   118a6:	44d0                	lw	x12,12(x9)
   118a8:	0000                	unimp
   118aa:	464e050b          	0x464e050b
   118ae:	584c                	lw	x11,52(x8)
   118b0:	0020                	addi	x8,x2,8
   118b2:	0109                	addi	x2,x2,2
   118b4:	0600170b          	0x600170b
   118b8:	5600                	lw	x8,40(x12)
   118ba:	58df 9c8a 1a35      	0x1a359c8a58df
   118c0:	454e                	lw	x10,208(x2)
   118c2:	4250                	lw	x12,4(x12)
   118c4:	9d5e                	add	x26,x26,x23
   118c6:	4dd0                	lw	x12,28(x11)
   118c8:	0000                	unimp
   118ca:	e901                	bnez	x10,118da <raw_data+0x49a>
   118cc:	20585053          	0x20585053
   118d0:	0020                	addi	x8,x2,8
   118d2:	e3010107          	0xe3010107
   118d6:	0500                	addi	x8,x2,640
   118d8:	5a00                	lw	x8,48(x12)
   118da:	652d                	lui	x10,0xb
   118dc:	098ba727          	fsw	f24,142(x23) # a08e <_start-0x5ff2>
   118e0:	454e                	lw	x10,208(x2)
   118e2:	4250                	lw	x12,4(x12)
   118e4:	9d5e                	add	x26,x26,x23
   118e6:	54d0                	lw	x12,44(x9)
   118e8:	0000                	unimp
   118ea:	5053462f          	0x5053462f
   118ee:	2059                	jal	11974 <raw_data+0x534>
   118f0:	0020                	addi	x8,x2,8
   118f2:	0109                	addi	x2,x2,2
   118f4:	0500512f          	0x500512f
   118f8:	5a00                	lw	x8,48(x12)
   118fa:	de98                	sw	x14,56(x13)
   118fc:	c4e0                	sw	x8,76(x9)
   118fe:	303d                	jal	1112c <__bswapdi2+0xd84>
   11900:	454e                	lw	x10,208(x2)
   11902:	9d5e5343          	0x9d5e5343
   11906:	5bd0                	lw	x12,52(x15)
   11908:	0000                	unimp
   1190a:	e709                	bnez	x14,11914 <raw_data+0x4d4>
   1190c:	474f4f47          	fmsub.q	f30,f30,f20,f8,rmm
   11910:	004c                	addi	x11,x2,4
   11912:	0212                	slli	x4,x4,0x4
   11914:	f709                	bnez	x14,1181e <raw_data+0x3de>
   11916:	0300                	addi	x8,x2,384
   11918:	5c00                	lw	x8,56(x8)
   1191a:	2788                	fld	f10,8(x15)
   1191c:	053a                	slli	x10,x10,0xe
   1191e:	0690                	addi	x12,x2,832
   11920:	454e                	lw	x10,208(x2)
   11922:	9d5e5343          	0x9d5e5343
   11926:	63d0                	flw	f12,4(x15)
   11928:	0000                	unimp
   1192a:	fd25                	bnez	x10,118a2 <raw_data+0x462>
   1192c:	4141                	li	x2,16
   1192e:	4c50                	lw	x12,28(x8)
   11930:	0020                	addi	x8,x2,8
   11932:	0215                	addi	x4,x4,5
   11934:	0726                	slli	x14,x14,0x9
   11936:	0d00                	addi	x8,x2,656
   11938:	6000                	flw	f8,0(x8)
   1193a:	9860                	0x9860
   1193c:	f20c0b73          	0xf20c0b73
   11940:	454e                	lw	x10,208(x2)
   11942:	5350                	lw	x12,36(x14)
   11944:	9d5e                	add	x26,x26,x23
   11946:	68d0                	flw	f12,20(x9)
   11948:	0000                	unimp
   1194a:	e835                	bnez	x8,119be <raw_data+0x57e>
   1194c:	20495457          	0x20495457
   11950:	0020                	addi	x8,x2,8
   11952:	011f d735 0800      	0x800d735011f
   11958:	6000                	flw	f8,0(x8)
   1195a:	9fde                	add	x31,x31,x23
   1195c:	66f8                	flw	f14,76(x13)
   1195e:	454e59d3          	0x454e59d3
   11962:	5350                	lw	x12,36(x14)
   11964:	9d5e                	add	x26,x26,x23
   11966:	6dd0                	flw	f12,28(x11)
   11968:	0000                	unimp
   1196a:	a429                	j	11b74 <raw_data+0x734>
   1196c:	20495457          	0x20495457
   11970:	0020                	addi	x8,x2,8
   11972:	0221                	addi	x4,x4,8
   11974:	9529                	srai	x10,x10,0x2a
   11976:	0700                	addi	x8,x2,896
   11978:	6300                	flw	f8,0(x14)
   1197a:	4405                	li	x8,1
   1197c:	4f1d4567          	0x4f1d4567
   11980:	454e                	lw	x10,208(x2)
   11982:	9d5e5343          	0x9d5e5343
   11986:	76d0                	flw	f12,44(x13)
   11988:	0000                	unimp
   1198a:	e211                	bnez	x12,1198e <raw_data+0x54e>
   1198c:	4141                	li	x2,16
   1198e:	4c50                	lw	x12,28(x8)
   11990:	0020                	addi	x8,x2,8
   11992:	021d                	addi	x4,x4,7
   11994:	eb11                	bnez	x14,119a8 <raw_data+0x568>
   11996:	0400                	addi	x8,x2,512
   11998:	6500                	flw	f8,8(x10)
   1199a:	0a0bde2f          	0xa0bde2f
   1199e:	454e79b7          	lui	x19,0x454e7
   119a2:	9d5e4243          	0x9d5e4243
   119a6:	7bd0                	flw	f12,52(x15)
   119a8:	0000                	unimp
   119aa:	1334                	addi	x13,x2,424
   119ac:	2046                	fld	f0,80(x2)
   119ae:	2020                	fld	f8,64(x8)
   119b0:	0020                	addi	x8,x2,8
   119b2:	0f34010b          	0xf34010b
   119b6:	0b00                	addi	x8,x2,400
   119b8:	6700                	flw	f8,8(x14)
   119ba:	8ead                	xor	x13,x13,x11
   119bc:	b08e                	fsd	f3,96(x2)
   119be:	787e                	flw	f16,252(x2)
   119c0:	454e                	lw	x10,208(x2)
   119c2:	5350                	lw	x12,36(x14)
   119c4:	9d5e                	add	x26,x26,x23
   119c6:	85d0                	0x85d0
   119c8:	0000                	unimp
   119ca:	f435                	bnez	x8,11936 <raw_data+0x4f6>
   119cc:	4141                	li	x2,16
   119ce:	4c50                	lw	x12,28(x8)
   119d0:	0020                	addi	x8,x2,8
   119d2:	0210                	addi	x12,x2,256
   119d4:	f835                	bnez	x8,11948 <raw_data+0x508>
   119d6:	0c00                	addi	x8,x2,528
   119d8:	6a00                	flw	f8,16(x12)
   119da:	fb1d                	bnez	x14,11910 <raw_data+0x4d0>
   119dc:	93d4                	0x93d4
   119de:	454e26cb          	0x454e26cb
   119e2:	4250                	lw	x12,4(x12)
   119e4:	9d5e                	add	x26,x26,x23
   119e6:	8dd0                	0x8dd0
   119e8:	0000                	unimp
   119ea:	e00e                	fsw	f3,0(x2)
   119ec:	20585053          	0x20585053
   119f0:	0020                	addi	x8,x2,8
   119f2:	0204                	addi	x9,x2,256
   119f4:	d30e                	sw	x3,164(x2)
   119f6:	0a00                	addi	x8,x2,272
   119f8:	6b00                	flw	f8,16(x14)
   119fa:	80e8                	0x80e8
   119fc:	358c                	fld	f11,40(x11)
   119fe:	03a9                	addi	x7,x7,10
   11a00:	454e                	lw	x10,208(x2)
   11a02:	4250                	lw	x12,4(x12)
   11a04:	9d5e                	add	x26,x26,x23
   11a06:	9ed0                	0x9ed0
   11a08:	0000                	unimp
   11a0a:	a235                	j	11b36 <raw_data+0x6f6>
   11a0c:	474f4f47          	fmsub.q	f30,f30,f20,f8,rmm
   11a10:	004c                	addi	x11,x2,4
   11a12:	010e                	slli	x2,x2,0x3
   11a14:	b235                	j	11340 <__bswapdi2+0xf98>
   11a16:	0400                	addi	x8,x2,512
   11a18:	7100                	flw	f8,32(x10)
   11a1a:	306d                	jal	112c4 <__bswapdi2+0xf1c>
   11a1c:	fdad                	bnez	x11,11996 <raw_data+0x556>
   11a1e:	6025                	c.lui	x0,0x9
   11a20:	454e                	lw	x10,208(x2)
   11a22:	9d5e5343          	0x9d5e5343
   11a26:	a4d0                	fsd	f12,136(x9)
   11a28:	0000                	unimp
   11a2a:	bc25                	j	11462 <raw_data+0x22>
   11a2c:	20585053          	0x20585053
   11a30:	0020                	addi	x8,x2,8
   11a32:	0109                	addi	x2,x2,2
   11a34:	b425                	j	1145c <raw_data+0x1c>
   11a36:	0d00                	addi	x8,x2,656
   11a38:	7200                	flw	f8,32(x12)
   11a3a:	9d0d                	0x9d0d
   11a3c:	2e55                	jal	11df0 <raw_data+0x9b0>
   11a3e:	454e407b          	0x454e407b
   11a42:	4250                	lw	x12,4(x12)
   11a44:	9d5e                	add	x26,x26,x23
   11a46:	abd0                	fsd	f12,144(x15)
   11a48:	0000                	unimp
   11a4a:	b626                	fsd	f9,296(x2)
   11a4c:	4141                	li	x2,16
   11a4e:	4c50                	lw	x12,28(x8)
   11a50:	0020                	addi	x8,x2,8
   11a52:	bd260213          	addi	x4,x12,-1070 # fefbd2 <__BSS_END__+0xfd9c7a>
   11a56:	0800                	addi	x8,x2,16
   11a58:	7200                	flw	f8,32(x12)
   11a5a:	986d                	andi	x8,x8,-5
   11a5c:	6a9dcb57          	0x6a9dcb57
   11a60:	454e                	lw	x10,208(x2)
   11a62:	5350                	lw	x12,36(x14)
   11a64:	9d5e                	add	x26,x26,x23
   11a66:	b4d0                	fsd	f12,168(x9)
   11a68:	0000                	unimp
   11a6a:	50536c23          	0x50536c23
   11a6e:	2059                	jal	11af4 <raw_data+0x6b4>
   11a70:	0020                	addi	x8,x2,8
   11a72:	7023010f          	0x7023010f
   11a76:	0600                	addi	x8,x2,768
   11a78:	7500                	flw	f8,40(x10)
   11a7a:	29f0                	fld	f12,208(x11)
   11a7c:	6eff664f          	fnmadd.q	f12,f30,f15,f13,unknown
   11a80:	454e                	lw	x10,208(x2)
   11a82:	9d5e4243          	0x9d5e4243
   11a86:	bad0                	fsd	f12,176(x13)
   11a88:	0000                	unimp
   11a8a:	7b39                	lui	x22,0xfffee
   11a8c:	20595053          	0x20595053
   11a90:	0020                	addi	x8,x2,8
   11a92:	0204                	addi	x9,x2,256
   11a94:	7c39                	lui	x24,0xfffee
   11a96:	0d00                	addi	x8,x2,656
   11a98:	7900                	flw	f8,48(x10)
   11a9a:	b590611b          	0xb590611b
   11a9e:	454eb99b          	0x454eb99b
   11aa2:	5350                	lw	x12,36(x14)
   11aa4:	9d5e                	add	x26,x26,x23
   11aa6:	c2d0                	sw	x12,4(x13)
   11aa8:	0000                	unimp
   11aaa:	cc02                	sw	x0,24(x2)
   11aac:	4141                	li	x2,16
   11aae:	4c50                	lw	x12,28(x8)
   11ab0:	0020                	addi	x8,x2,8
   11ab2:	0105                	addi	x2,x2,1
   11ab4:	d802                	sw	x0,48(x2)
   11ab6:	0b00                	addi	x8,x2,400
   11ab8:	7c00                	flw	f8,56(x8)
   11aba:	3261                	jal	11442 <raw_data+0x2>
   11abc:	3a67d04b          	fnmsub.d	f0,f15,f6,f7,unknown
   11ac0:	454e                	lw	x10,208(x2)
   11ac2:	9d5e4243          	0x9d5e4243
   11ac6:	c6d0                	sw	x12,12(x13)
   11ac8:	0000                	unimp
   11aca:	54578f07          	0x54578f07
   11ace:	2049                	jal	11b50 <raw_data+0x710>
   11ad0:	0020                	addi	x8,x2,8
   11ad2:	021a                	slli	x4,x4,0x6
   11ad4:	0a008407          	0xa008407
   11ad8:	7c00                	flw	f8,56(x8)
   11ada:	5ac4                	lw	x9,52(x13)
   11adc:	bde9                	j	119b6 <raw_data+0x576>
   11ade:	454e8dbb          	0x454e8dbb
   11ae2:	5350                	lw	x12,36(x14)
   11ae4:	9d5e                	add	x26,x26,x23
   11ae6:	c9d0                	sw	x12,20(x11)
   11ae8:	0000                	unimp
   11aea:	1e15                	addi	x28,x28,-27
   11aec:	4d59                	li	x26,22
   11aee:	2020                	fld	f8,64(x8)
   11af0:	0020                	addi	x8,x2,8
   11af2:	0220                	addi	x8,x2,264
   11af4:	2615                	jal	11e18 <raw_data+0x9d8>
   11af6:	0d00                	addi	x8,x2,656
   11af8:	7d00                	flw	f8,56(x10)
   11afa:	23fc                	fld	f15,192(x15)
   11afc:	0e29                	addi	x28,x28,10
   11afe:	b128                	fsd	f10,96(x10)
   11b00:	454e                	lw	x10,208(x2)
   11b02:	9d5e5343          	0x9d5e5343
   11b06:	d0d0                	sw	x12,36(x9)
   11b08:	0000                	unimp
   11b0a:	7332                	flw	f6,44(x2)
   11b0c:	20495457          	0x20495457
   11b10:	0020                	addi	x8,x2,8
   11b12:	021a                	slli	x4,x4,0x6
   11b14:	6a32                	flw	f20,12(x2)
   11b16:	0800                	addi	x8,x2,16
   11b18:	7e00                	flw	f8,56(x12)
   11b1a:	df5f 4f7d 05eb      	0x5eb4f7ddf5f
   11b20:	454e                	lw	x10,208(x2)
   11b22:	4250                	lw	x12,4(x12)
   11b24:	9d5e                	add	x26,x26,x23
   11b26:	d7d0                	sw	x12,44(x15)
   11b28:	0000                	unimp
   11b2a:	53458823          	sb	x20,1328(x11)
   11b2e:	2020                	fld	f8,64(x8)
   11b30:	0020                	addi	x8,x2,8
   11b32:	0214                	addi	x13,x2,256
   11b34:	02009823          	sh	x0,48(x1)
   11b38:	8000                	0x8000
   11b3a:	5ae0                	lw	x8,116(x13)
   11b3c:	15fe                	slli	x11,x11,0x3f
   11b3e:	eb40                	fsw	f8,20(x14)
   11b40:	454e                	lw	x10,208(x2)
   11b42:	9d5e4243          	0x9d5e4243
   11b46:	e0d0                	fsw	f12,4(x9)
   11b48:	0000                	unimp
   11b4a:	9c04                	0x9c04
   11b4c:	5345                	li	x6,-15
   11b4e:	2020                	fld	f8,64(x8)
   11b50:	0020                	addi	x8,x2,8
   11b52:	010c                	addi	x11,x2,128
   11b54:	9404                	0x9404
   11b56:	0400                	addi	x8,x2,512
   11b58:	8200                	0x8200
   11b5a:	ff4e                	fsw	f19,188(x2)
   11b5c:	6c9c58e7          	0x6c9c58e7
   11b60:	454e                	lw	x10,208(x2)
   11b62:	4250                	lw	x12,4(x12)
   11b64:	9d5e                	add	x26,x26,x23
   11b66:	e7d0                	fsw	f12,12(x15)
   11b68:	0000                	unimp
   11b6a:	f602                	fsw	f0,44(x2)
   11b6c:	20585053          	0x20585053
   11b70:	0020                	addi	x8,x2,8
   11b72:	0106                	slli	x2,x2,0x1
   11b74:	e702                	fsw	f0,140(x2)
   11b76:	0500                	addi	x8,x2,640
   11b78:	8500                	0x8500
   11b7a:	4124                	lw	x9,64(x10)
   11b7c:	cbba                	sw	x14,212(x2)
   11b7e:	454e4edb          	0x454e4edb
   11b82:	5350                	lw	x12,36(x14)
   11b84:	9d5e                	add	x26,x26,x23
   11b86:	efd0                	fsw	f12,28(x15)
   11b88:	0000                	unimp
   11b8a:	1f2d                	addi	x30,x30,-21
   11b8c:	20595053          	0x20595053
   11b90:	0020                	addi	x8,x2,8
   11b92:	010c                	addi	x11,x2,128
   11b94:	2b2d                	jal	120ce <raw_data+0xc8e>
   11b96:	0900                	addi	x8,x2,144
   11b98:	8700                	0x8700
   11b9a:	f32a                	fsw	f10,164(x2)
   11b9c:	7b14                	flw	f13,48(x14)
   11b9e:	66bd                	lui	x13,0xf
   11ba0:	454e                	lw	x10,208(x2)
   11ba2:	5350                	lw	x12,36(x14)
   11ba4:	9d5e                	add	x26,x26,x23
   11ba6:	f7d0                	fsw	f12,44(x15)
   11ba8:	0000                	unimp
   11baa:	4316                	lw	x6,68(x2)
   11bac:	20595053          	0x20595053
   11bb0:	0020                	addi	x8,x2,8
   11bb2:	021e                	slli	x4,x4,0x7
   11bb4:	3316                	fld	f6,352(x2)
   11bb6:	0a00                	addi	x8,x2,272
   11bb8:	8700                	0x8700
   11bba:	1895                	addi	x17,x17,-27
   11bbc:	a940                	fsd	f8,144(x10)
   11bbe:	9f20                	0x9f20
   11bc0:	454e                	lw	x10,208(x2)
   11bc2:	4250                	lw	x12,4(x12)
   11bc4:	9d5e                	add	x26,x26,x23
   11bc6:	fbd0                	fsw	f12,52(x15)
   11bc8:	0000                	unimp
   11bca:	5c0d                	li	x24,-29
   11bcc:	20495457          	0x20495457
   11bd0:	0020                	addi	x8,x2,8
   11bd2:	0212                	slli	x4,x4,0x4
   11bd4:	600d                	c.lui	x0,0x3
   11bd6:	0700                	addi	x8,x2,896
   11bd8:	8800                	0x8800
   11bda:	0fa829bb          	0xfa829bb
   11bde:	4c55                	li	x24,21
   11be0:	454e                	lw	x10,208(x2)
   11be2:	9d5e5343          	0x9d5e5343
   11be6:	05d1                	addi	x11,x11,20
   11be8:	0000                	unimp
   11bea:	7810                	flw	f12,48(x8)
   11bec:	20495457          	0x20495457
   11bf0:	0020                	addi	x8,x2,8
   11bf2:	011a                	slli	x2,x2,0x6
   11bf4:	7810                	flw	f12,48(x8)
   11bf6:	0200                	addi	x8,x2,256
   11bf8:	8a00                	0x8a00
   11bfa:	7ece                	flw	f29,240(x2)
   11bfc:	60b0                	flw	f12,64(x9)
   11bfe:	a6d6                	fsd	f21,328(x2)
   11c00:	454e                	lw	x10,208(x2)
   11c02:	9d5e5343          	0x9d5e5343
   11c06:	0bd1                	addi	x23,x23,20
   11c08:	0000                	unimp
   11c0a:	4f47b30f          	0x4f47b30f
   11c0e:	004c474f          	fnmadd.s	f14,f24,f4,f0,rmm
   11c12:	0116                	slli	x2,x2,0x5
   11c14:	0800c00f          	0x800c00f
   11c18:	8b00                	0x8b00
   11c1a:	ec3710f3          	csrrw	x1,0xec3,x14
   11c1e:	7135                	addi	x2,x2,-160
   11c20:	454e                	lw	x10,208(x2)
   11c22:	9d5e5343          	0x9d5e5343
   11c26:	12d1                	addi	x5,x5,-12
   11c28:	0000                	unimp
   11c2a:	ff24                	fsw	f9,120(x14)
   11c2c:	20495457          	0x20495457
   11c30:	0020                	addi	x8,x2,8
   11c32:	f7240113          	addi	x2,x8,-142
   11c36:	0500                	addi	x8,x2,640
   11c38:	8e00                	0x8e00
   11c3a:	7a3e                	flw	f20,236(x2)
   11c3c:	2162                	fld	f2,24(x2)
   11c3e:	abfc                	fsd	f15,208(x15)
   11c40:	454e                	lw	x10,208(x2)
   11c42:	9d5e5343          	0x9d5e5343
   11c46:	1cd1                	addi	x25,x25,-12
   11c48:	0000                	unimp
   11c4a:	852d                	srai	x10,x10,0xb
   11c4c:	4d59                	li	x26,22
   11c4e:	2020                	fld	f8,64(x8)
   11c50:	0020                	addi	x8,x2,8
   11c52:	882d020f          	0x882d020f
   11c56:	0700                	addi	x8,x2,896
   11c58:	8f00                	0x8f00
   11c5a:	7344                	flw	f9,36(x14)
   11c5c:	f715                	bnez	x14,11b88 <raw_data+0x748>
   11c5e:	0e71                	addi	x28,x28,28
   11c60:	454e                	lw	x10,208(x2)
   11c62:	9d5e5343          	0x9d5e5343
   11c66:	25d1                	jal	1232a <raw_data+0xeea>
   11c68:	0000                	unimp
   11c6a:	f836                	fsw	f13,48(x2)
   11c6c:	474f4f47          	fmsub.q	f30,f30,f20,f8,rmm
   11c70:	004c                	addi	x11,x2,4
   11c72:	021f ff36 0300      	0x300ff36021f
   11c78:	9000                	0x9000
   11c7a:	78534a6f          	jal	x20,46bfe <__BSS_END__+0x30ca6>
   11c7e:	454e3103          	0x454e3103
   11c82:	5350                	lw	x12,36(x14)
   11c84:	9d5e                	add	x26,x26,x23
   11c86:	2dd1                	jal	1235a <raw_data+0xf1a>
   11c88:	0000                	unimp
   11c8a:	0611                	addi	x12,x12,4
   11c8c:	20585053          	0x20585053
   11c90:	0020                	addi	x8,x2,8
   11c92:	0215                	addi	x4,x4,5
   11c94:	f410                	fsw	f12,40(x8)
   11c96:	0800                	addi	x8,x2,16
   11c98:	9200                	0x9200
   11c9a:	c7e4                	sw	x9,76(x15)
   11c9c:	0b72                	slli	x22,x22,0x1c
   11c9e:	f42a                	fsw	f10,40(x2)
   11ca0:	454e                	lw	x10,208(x2)
   11ca2:	5350                	lw	x12,36(x14)
   11ca4:	9d5e                	add	x26,x26,x23
   11ca6:	3ad1                	jal	1167a <raw_data+0x23a>
   11ca8:	0000                	unimp
   11caa:	4f476a37          	lui	x20,0x4f476
   11cae:	004c474f          	fnmadd.s	f14,f24,f4,f0,rmm
   11cb2:	0205                	addi	x4,x4,1
   11cb4:	0b006e37          	lui	x28,0xb006
   11cb8:	9300                	0x9300
   11cba:	d20e96f7          	0xd20e96f7
   11cbe:	db22                	sw	x8,180(x2)
   11cc0:	454e                	lw	x10,208(x2)
   11cc2:	9d5e4243          	0x9d5e4243
   11cc6:	45d1                	li	x11,20
   11cc8:	0000                	unimp
   11cca:	0b2e                	slli	x22,x22,0xb
   11ccc:	20585053          	0x20585053
   11cd0:	0020                	addi	x8,x2,8
   11cd2:	0218                	addi	x14,x2,256
   11cd4:	0e2e                	slli	x28,x28,0xb
   11cd6:	0200                	addi	x8,x2,256
   11cd8:	9900                	0x9900
   11cda:	729a                	flw	f5,164(x2)
   11cdc:	6070                	flw	f12,68(x8)
   11cde:	35e8                	fld	f10,232(x11)
   11ce0:	454e                	lw	x10,208(x2)
   11ce2:	4250                	lw	x12,4(x12)
   11ce4:	9d5e                	add	x26,x26,x23
   11ce6:	49d1                	li	x19,20
   11ce8:	0000                	unimp
   11cea:	7624                	flw	f9,104(x12)
   11cec:	20495457          	0x20495457
   11cf0:	0020                	addi	x8,x2,8
   11cf2:	8224010f          	0x8224010f
   11cf6:	0900                	addi	x8,x2,144
   11cf8:	9c00                	0x9c00
   11cfa:	a52c46a7          	fsq	f18,-1459(x24) # fffeda4d <__BSS_END__+0xfffd7af5>
   11cfe:	b986                	fsd	f1,240(x2)
   11d00:	454e                	lw	x10,208(x2)
   11d02:	5350                	lw	x12,36(x14)
   11d04:	9d5e                	add	x26,x26,x23
   11d06:	53d1                	li	x7,-12
   11d08:	0000                	unimp
   11d0a:	4f21                	li	x30,8
   11d0c:	474f4f47          	fmsub.q	f30,f30,f20,f8,rmm
   11d10:	004c                	addi	x11,x2,4
   11d12:	5621011b          	0x5621011b
   11d16:	0500                	addi	x8,x2,640
   11d18:	9e00                	0x9e00
   11d1a:	7ba420f7          	0x7ba420f7
   11d1e:	abc8                	fsd	f10,144(x15)
   11d20:	454e                	lw	x10,208(x2)
   11d22:	4250                	lw	x12,4(x12)
   11d24:	9d5e                	add	x26,x26,x23
   11d26:	5cd1                	li	x25,-12
   11d28:	0000                	unimp
   11d2a:	7d09                	lui	x26,0xfffe2
   11d2c:	474f4f47          	fmsub.q	f30,f30,f20,f8,rmm
   11d30:	004c                	addi	x11,x2,4
   11d32:	021e                	slli	x4,x4,0x7
   11d34:	8a09                	andi	x12,x12,2
   11d36:	0a00                	addi	x8,x2,272
   11d38:	a100                	fsd	f8,0(x10)
   11d3a:	007f                	0x7f
   11d3c:	3985                	jal	119ac <raw_data+0x56c>
   11d3e:	454e3527          	fsd	f20,1098(x28) # b00644a <__BSS_END__+0xaff04f2>
   11d42:	5350                	lw	x12,36(x14)
   11d44:	9d5e                	add	x26,x26,x23
   11d46:	63d1                	lui	x7,0x14
   11d48:	0000                	unimp
   11d4a:	5345b133          	0x5345b133
   11d4e:	2020                	fld	f8,64(x8)
   11d50:	0020                	addi	x8,x2,8
   11d52:	0218                	addi	x14,x2,256
   11d54:	0500ba33          	0x500ba33
   11d58:	a400                	fsd	f8,8(x8)
   11d5a:	ea96                	fsw	f5,84(x2)
   11d5c:	dc44                	sw	x9,60(x8)
   11d5e:	c721                	beqz	x14,11da6 <raw_data+0x966>
   11d60:	454e                	lw	x10,208(x2)
   11d62:	9d5e4243          	0x9d5e4243
   11d66:	6dd1                	lui	x27,0x14
   11d68:	0000                	unimp
   11d6a:	2046cb0f          	0x2046cb0f
   11d6e:	2020                	fld	f8,64(x8)
   11d70:	0020                	addi	x8,x2,8
   11d72:	0216                	slli	x4,x4,0x5
   11d74:	0300bc0f          	0x300bc0f
   11d78:	a500                	fsd	f8,8(x10)
   11d7a:	100e                	c.slli	x0,0x23
   11d7c:	0166                	slli	x2,x2,0x19
   11d7e:	118d                	addi	x3,x3,-29
   11d80:	454e                	lw	x10,208(x2)
   11d82:	4250                	lw	x12,4(x12)
   11d84:	9d5e                	add	x26,x26,x23
   11d86:	74d1                	lui	x9,0xffff4
   11d88:	0000                	unimp
   11d8a:	8504                	0x8504
   11d8c:	4141                	li	x2,16
   11d8e:	4c50                	lw	x12,28(x8)
   11d90:	0020                	addi	x8,x2,8
   11d92:	90040107          	0x90040107
   11d96:	0600                	addi	x8,x2,768
   11d98:	a500                	fsd	f8,8(x10)
   11d9a:	3475                	jal	11846 <raw_data+0x406>
   11d9c:	7618                	flw	f14,40(x12)
   11d9e:	2f91                	jal	124f2 <raw_data+0x10b2>
   11da0:	454e                	lw	x10,208(x2)
   11da2:	5350                	lw	x12,36(x14)
   11da4:	9d5e                	add	x26,x26,x23
   11da6:	7bd1                	lui	x23,0xffff4
   11da8:	0000                	unimp
   11daa:	8b12                	mv	x22,x4
   11dac:	5345                	li	x6,-15
   11dae:	2020                	fld	f8,64(x8)
   11db0:	0020                	addi	x8,x2,8
   11db2:	95120123          	sb	x17,-1726(x4) # fffff942 <__BSS_END__+0xfffe99ea>
   11db6:	0700                	addi	x8,x2,896
   11db8:	a600                	fsd	f8,8(x12)
   11dba:	f630                	fsw	f12,104(x12)
   11dbc:	9e39                	0x9e39
   11dbe:	8408                	0x8408
   11dc0:	454e                	lw	x10,208(x2)
   11dc2:	4250                	lw	x12,4(x12)
   11dc4:	9d5e                	add	x26,x26,x23
   11dc6:	83d1                	srli	x15,x15,0x14
   11dc8:	0000                	unimp
   11dca:	4506                	lw	x10,64(x2)
   11dcc:	2046                	fld	f0,80(x2)
   11dce:	2020                	fld	f8,64(x8)
   11dd0:	0020                	addi	x8,x2,8
   11dd2:	4006021b          	0x4006021b
   11dd6:	0700                	addi	x8,x2,896
   11dd8:	a800                	fsd	f8,16(x8)
   11dda:	4502                	lw	x10,0(x2)
   11ddc:	a9fd19bb          	0xa9fd19bb
   11de0:	454e                	lw	x10,208(x2)
   11de2:	9d5e4243          	0x9d5e4243
   11de6:	86d1                	srai	x13,x13,0x14
   11de8:	0000                	unimp
   11dea:	182a                	slli	x16,x16,0x2a
   11dec:	20595053          	0x20595053
   11df0:	0020                	addi	x8,x2,8
   11df2:	192a0203          	lb	x4,402(x20) # 4f476192 <__BSS_END__+0x4f46023a>
   11df6:	0700                	addi	x8,x2,896
   11df8:	aa00                	fsd	f8,16(x12)
   11dfa:	9b68                	0x9b68
   11dfc:	1832                	slli	x16,x16,0x2c
   11dfe:	e038                	fsw	f14,64(x8)
   11e00:	454e                	lw	x10,208(x2)
   11e02:	4250                	lw	x12,4(x12)
   11e04:	9d5e                	add	x26,x26,x23
   11e06:	90d1                	srli	x9,x9,0x34
   11e08:	0000                	unimp
   11e0a:	6619                	lui	x12,0x6
   11e0c:	4141                	li	x2,16
   11e0e:	4c50                	lw	x12,28(x8)
   11e10:	0020                	addi	x8,x2,8
   11e12:	5a190207          	0x5a190207
   11e16:	0b00                	addi	x8,x2,400
   11e18:	ac00                	fsd	f8,24(x8)
   11e1a:	4be9                	li	x23,26
   11e1c:	7372                	flw	f6,60(x2)
   11e1e:	2f16                	fld	f30,320(x2)
   11e20:	454e                	lw	x10,208(x2)
   11e22:	5350                	lw	x12,36(x14)
   11e24:	9d5e                	add	x26,x26,x23
   11e26:	99d1                	andi	x11,x11,-12
   11e28:	0000                	unimp
   11e2a:	ec28                	fsw	f10,88(x8)
   11e2c:	464e                	lw	x12,208(x2)
   11e2e:	584c                	lw	x11,52(x8)
   11e30:	0020                	addi	x8,x2,8
   11e32:	ed280223          	sb	x18,-316(x16)
   11e36:	0500                	addi	x8,x2,640
   11e38:	ad00                	fsd	f8,24(x10)
   11e3a:	aeb2                	fsd	f12,344(x2)
   11e3c:	da86                	sw	x1,116(x2)
   11e3e:	a1c8                	fsd	f10,128(x11)
   11e40:	454e                	lw	x10,208(x2)
   11e42:	9d5e4243          	0x9d5e4243
   11e46:	9ed1                	0x9ed1
   11e48:	0000                	unimp
   11e4a:	be14                	fsd	f13,56(x12)
   11e4c:	4d59                	li	x26,22
   11e4e:	2020                	fld	f8,64(x8)
   11e50:	0020                	addi	x8,x2,8
   11e52:	0205                	addi	x4,x4,1
   11e54:	cb14                	sw	x13,16(x14)
   11e56:	0200                	addi	x8,x2,256
   11e58:	ae00                	fsd	f8,24(x12)
   11e5a:	40ba                	lw	x1,140(x2)
   11e5c:	344c                	fld	f11,168(x8)
   11e5e:	454e106f          	j	f32b2 <__BSS_END__+0xdd35a>
   11e62:	5350                	lw	x12,36(x14)
   11e64:	9d5e                	add	x26,x26,x23
   11e66:	a2d1                	j	1202a <raw_data+0xbea>
   11e68:	0000                	unimp
   11e6a:	8634                	0x8634
   11e6c:	2046                	fld	f0,80(x2)
   11e6e:	2020                	fld	f8,64(x8)
   11e70:	0020                	addi	x8,x2,8
   11e72:	021e                	slli	x4,x4,0x7
   11e74:	8834                	0x8834
   11e76:	0400                	addi	x8,x2,512
   11e78:	af00                	fsd	f8,24(x14)
   11e7a:	f135                	bnez	x10,11dde <raw_data+0x99e>
   11e7c:	7da4                	flw	f9,120(x11)
   11e7e:	454e4e73          	0x454e4e73
   11e82:	9d5e5343          	0x9d5e5343
   11e86:	a7d1                	j	1264a <raw_data+0x120a>
   11e88:	0000                	unimp
   11e8a:	333a                	fld	f6,424(x2)
   11e8c:	474f4f47          	fmsub.q	f30,f30,f20,f8,rmm
   11e90:	004c                	addi	x11,x2,4
   11e92:	021c                	addi	x15,x2,256
   11e94:	2a3a                	fld	f20,392(x2)
   11e96:	0400                	addi	x8,x2,512
   11e98:	b100                	fsd	f8,32(x10)
   11e9a:	85da                	mv	x11,x22
   11e9c:	be3e                	fsd	f15,312(x2)
   11e9e:	85f2                	mv	x11,x28
   11ea0:	454e                	lw	x10,208(x2)
   11ea2:	4250                	lw	x12,4(x12)
   11ea4:	9d5e                	add	x26,x26,x23
   11ea6:	afd1                	j	1267a <raw_data+0x123a>
   11ea8:	0000                	unimp
   11eaa:	0116                	slli	x2,x2,0x5
   11eac:	474f4f47          	fmsub.q	f30,f30,f20,f8,rmm
   11eb0:	004c                	addi	x11,x2,4
   11eb2:	010c                	addi	x11,x2,128
   11eb4:	fd15                	bnez	x10,11df0 <raw_data+0x9b0>
   11eb6:	0600                	addi	x8,x2,768
   11eb8:	b400                	fsd	f8,40(x8)
   11eba:	5de0                	lw	x8,124(x11)
   11ebc:	a2a4                	fsd	f9,64(x13)
   11ebe:	4d9d                	li	x27,7
   11ec0:	454e                	lw	x10,208(x2)
   11ec2:	9d5e4243          	0x9d5e4243
   11ec6:	b8d1                	j	1179a <raw_data+0x35a>
   11ec8:	0000                	unimp
   11eca:	4f478807          	0x4f478807
   11ece:	004c474f          	fnmadd.s	f14,f24,f4,f0,rmm
   11ed2:	0216                	slli	x4,x4,0x5
   11ed4:	02009907          	0x2009907
   11ed8:	b500                	fsd	f8,40(x10)
   11eda:	d4b2                	sw	x12,104(x2)
   11edc:	6e88                	flw	f10,24(x13)
   11ede:	93ff                	0x93ff
   11ee0:	454e                	lw	x10,208(x2)
   11ee2:	9d5e5343          	0x9d5e5343
   11ee6:	c1d1                	beqz	x11,11f6a <raw_data+0xb2a>
   11ee8:	0000                	unimp
   11eea:	8b29                	andi	x14,x14,10
   11eec:	5345                	li	x6,-15
   11eee:	2020                	fld	f8,64(x8)
   11ef0:	0020                	addi	x8,x2,8
   11ef2:	010a                	slli	x2,x2,0x2
   11ef4:	7729                	lui	x14,0xfffea
   11ef6:	0900                	addi	x8,x2,144
   11ef8:	b900                	fsd	f8,48(x10)
   11efa:	b0519a07          	0xb0519a07
   11efe:	c2ec                	sw	x11,68(x13)
   11f00:	454e                	lw	x10,208(x2)
   11f02:	4250                	lw	x12,4(x12)
   11f04:	9d5e                	add	x26,x26,x23
   11f06:	c9d1                	beqz	x11,11f9a <raw_data+0xb5a>
   11f08:	0000                	unimp
   11f0a:	de25                	beqz	x12,11e82 <raw_data+0xa42>
   11f0c:	2046                	fld	f0,80(x2)
   11f0e:	2020                	fld	f8,64(x8)
   11f10:	0020                	addi	x8,x2,8
   11f12:	de250103          	lb	x2,-542(x10) # ade2 <_start-0x529e>
   11f16:	0b00                	addi	x8,x2,400
   11f18:	b900                	fsd	f8,48(x10)
   11f1a:	291b1ed3          	fmax.s	f29,f22,f17
   11f1e:	454ee84b          	0x454ee84b
   11f22:	9d5e5343          	0x9d5e5343
   11f26:	ccd1                	beqz	x9,11fc2 <raw_data+0xb82>
   11f28:	0000                	unimp
   11f2a:	f318                	fsw	f14,32(x14)
   11f2c:	464e                	lw	x12,208(x2)
   11f2e:	584c                	lw	x11,52(x8)
   11f30:	0020                	addi	x8,x2,8
   11f32:	020e                	slli	x4,x4,0x3
   11f34:	e518                	fsw	f14,8(x10)
   11f36:	0800                	addi	x8,x2,16
   11f38:	bb00                	fsd	f8,48(x14)
   11f3a:	87bd                	srai	x15,x15,0xf
   11f3c:	7f4d                	lui	x30,0xffff3
   11f3e:	454e9a6f          	jal	x20,fb392 <__BSS_END__+0xe543a>
   11f42:	9d5e5343          	0x9d5e5343
   11f46:	d3d1                	beqz	x15,11eca <raw_data+0xa8a>
   11f48:	0000                	unimp
   11f4a:	2c01                	jal	1215a <raw_data+0xd1a>
   11f4c:	20585053          	0x20585053
   11f50:	0020                	addi	x8,x2,8
   11f52:	011a                	slli	x2,x2,0x6
   11f54:	1b01                	addi	x22,x22,-32
   11f56:	0200                	addi	x8,x2,256
   11f58:	bd00                	fsd	f8,56(x10)
   11f5a:	a4be                	fsd	f15,72(x2)
   11f5c:	0131                	addi	x2,x2,12
   11f5e:	94f9                	srai	x9,x9,0x3e
   11f60:	454e                	lw	x10,208(x2)
   11f62:	5350                	lw	x12,36(x14)
   11f64:	9d5e                	add	x26,x26,x23
   11f66:	dad1                	beqz	x13,11efa <raw_data+0xaba>
   11f68:	0000                	unimp
   11f6a:	a932                	fsd	f12,144(x2)
   11f6c:	20595053          	0x20595053
   11f70:	0020                	addi	x8,x2,8
   11f72:	0215                	addi	x4,x4,5
   11f74:	ba32                	fsd	f12,304(x2)
   11f76:	0600                	addi	x8,x2,768
   11f78:	c000                	sw	x8,0(x8)
   11f7a:	8eee                	mv	x29,x27
   11f7c:	cd98                	sw	x14,24(x11)
   11f7e:	3a3e                	fld	f20,488(x2)
   11f80:	454e                	lw	x10,208(x2)
   11f82:	9d5e4243          	0x9d5e4243
   11f86:	e3d1                	bnez	x15,1200a <raw_data+0xbca>
   11f88:	0000                	unimp
   11f8a:	5053452f          	0x5053452f
   11f8e:	2059                	jal	12014 <raw_data+0xbd4>
   11f90:	0020                	addi	x8,x2,8
   11f92:	0122                	slli	x2,x2,0x8
   11f94:	0600452f          	0x600452f
   11f98:	c300                	sw	x8,0(x14)
   11f9a:	1509                	addi	x10,x10,-30
   11f9c:	8db4                	0x8db4
   11f9e:	d3ca                	sw	x18,228(x2)
   11fa0:	454e                	lw	x10,208(x2)
   11fa2:	4250                	lw	x12,4(x12)
   11fa4:	9d5e                	add	x26,x26,x23
   11fa6:	e6d1                	bnez	x13,12032 <raw_data+0xbf2>
   11fa8:	0000                	unimp
   11faa:	5053c823          	0x5053c823
   11fae:	2059                	jal	12034 <raw_data+0xbf4>
   11fb0:	0020                	addi	x8,x2,8
   11fb2:	c923021b          	0xc923021b
   11fb6:	0200                	addi	x8,x2,256
   11fb8:	c400                	sw	x8,8(x8)
   11fba:	136d                	addi	x6,x6,-5
   11fbc:	db35                	beqz	x14,11f30 <raw_data+0xaf0>
   11fbe:	3cf5                	jal	11aba <raw_data+0x67a>
   11fc0:	454e                	lw	x10,208(x2)
   11fc2:	5350                	lw	x12,36(x14)
   11fc4:	9d5e                	add	x26,x26,x23
   11fc6:	ebd1                	bnez	x15,1205a <raw_data+0xc1a>
   11fc8:	0000                	unimp
   11fca:	1f2c                	addi	x11,x2,952
   11fcc:	5345                	li	x6,-15
   11fce:	2020                	fld	f8,64(x8)
   11fd0:	0020                	addi	x8,x2,8
   11fd2:	132c0113          	addi	x2,x24,306
   11fd6:	0d00                	addi	x8,x2,656
   11fd8:	c500                	sw	x8,8(x10)
   11fda:	e7d23a13          	sltiu	x20,x4,-387
   11fde:	2196                	fld	f3,320(x2)
   11fe0:	454e                	lw	x10,208(x2)
   11fe2:	9d5e5343          	0x9d5e5343
   11fe6:	f0d1                	bnez	x9,11f6a <raw_data+0xb2a>
   11fe8:	0000                	unimp
   11fea:	4d598b27          	0x4d598b27
   11fee:	2020                	fld	f8,64(x8)
   11ff0:	0020                	addi	x8,x2,8
   11ff2:	94270207          	0x94270207
   11ff6:	0b00                	addi	x8,x2,400
   11ff8:	c500                	sw	x8,8(x10)
   11ffa:	ede5                	bnez	x11,120f2 <raw_data+0xcb2>
   11ffc:	15a5                	addi	x11,x11,-23
   11ffe:	1366                	slli	x6,x6,0x39
   12000:	454e                	lw	x10,208(x2)
   12002:	5350                	lw	x12,36(x14)
   12004:	9d5e                	add	x26,x26,x23
   12006:	f7d1                	bnez	x15,11f92 <raw_data+0xb52>
   12008:	0000                	unimp
   1200a:	6b2e                	flw	f22,200(x2)
   1200c:	464e                	lw	x12,208(x2)
   1200e:	584c                	lw	x11,52(x8)
   12010:	0020                	addi	x8,x2,8
   12012:	0210                	addi	x12,x2,256
   12014:	672e                	flw	f14,200(x2)
   12016:	0700                	addi	x8,x2,896
   12018:	c800                	sw	x8,16(x8)
   1201a:	d1ed                	beqz	x11,11ffc <raw_data+0xbbc>
   1201c:	07fa                	slli	x15,x15,0x1e
   1201e:	454efb67          	0x454efb67
   12022:	9d5e4243          	0x9d5e4243
   12026:	ffd1                	bnez	x15,11fc2 <raw_data+0xb82>
   12028:	0000                	unimp
   1202a:	3525                	jal	11e52 <raw_data+0xa12>
   1202c:	20595053          	0x20595053
   12030:	0020                	addi	x8,x2,8
   12032:	0108                	addi	x10,x2,128
   12034:	2a25                	jal	1216c <raw_data+0xd2c>
   12036:	0c00                	addi	x8,x2,528
   12038:	ca00                	sw	x8,16(x12)
   1203a:	8fc951a7          	0x8fc951a7
   1203e:	76b4                	flw	f13,104(x13)
   12040:	454e                	lw	x10,208(x2)
   12042:	4250                	lw	x12,4(x12)
   12044:	9d5e                	add	x26,x26,x23
   12046:	09d2                	slli	x19,x19,0x14
   12048:	0000                	unimp
   1204a:	4c25                	li	x24,9
   1204c:	4141                	li	x2,16
   1204e:	4c50                	lw	x12,28(x8)
   12050:	0020                	addi	x8,x2,8
   12052:	4e250103          	lb	x2,1250(x10)
   12056:	0b00                	addi	x8,x2,400
   12058:	cc00                	sw	x8,24(x8)
   1205a:	d140bdfb          	0xd140bdfb
   1205e:	454e04bb          	0x454e04bb
   12062:	9d5e4243          	0x9d5e4243
   12066:	0dd2                	slli	x27,x27,0x14
   12068:	0000                	unimp
   1206a:	6018                	flw	f14,0(x8)
   1206c:	20495457          	0x20495457
   12070:	0020                	addi	x8,x2,8
   12072:	0114                	addi	x13,x2,128
   12074:	5118                	lw	x14,32(x10)
   12076:	0700                	addi	x8,x2,896
   12078:	cd00                	sw	x8,24(x10)
   1207a:	ed78                	fsw	f14,92(x10)
   1207c:	1ae5648f          	0x1ae5648f
   12080:	454e                	lw	x10,208(x2)
   12082:	9d5e5343          	0x9d5e5343
   12086:	16d2                	slli	x13,x13,0x34
   12088:	0000                	unimp
   1208a:	2328                	fld	f10,64(x14)
   1208c:	20595053          	0x20595053
   12090:	0020                	addi	x8,x2,8
   12092:	021c                	addi	x15,x2,256
   12094:	2428                	fld	f10,72(x8)
   12096:	0200                	addi	x8,x2,256
   12098:	ce00                	sw	x8,24(x12)
   1209a:	c79d                	beqz	x15,120c8 <raw_data+0xc88>
   1209c:	c83e                	sw	x15,16(x2)
   1209e:	b65c                	fsd	f15,168(x12)
   120a0:	454e                	lw	x10,208(x2)
   120a2:	9d5e5343          	0x9d5e5343
   120a6:	19d2                	slli	x19,x19,0x34
   120a8:	0000                	unimp
   120aa:	ab0e                	fsd	f3,400(x2)
   120ac:	4141                	li	x2,16
   120ae:	4c50                	lw	x12,28(x8)
   120b0:	0020                	addi	x8,x2,8
   120b2:	9b0e010f          	0x9b0e010f
   120b6:	0600                	addi	x8,x2,768
   120b8:	d100                	sw	x8,32(x10)
   120ba:	8059                	srli	x8,x8,0x16
   120bc:	5160                	lw	x8,100(x10)
   120be:	454e252f          	amoor.w.aq	x10,x20,(x28)
   120c2:	9d5e4243          	0x9d5e4243
   120c6:	1fd2                	slli	x31,x31,0x34
   120c8:	0000                	unimp
   120ca:	f622                	fsw	f8,44(x2)
   120cc:	20595053          	0x20595053
   120d0:	0020                	addi	x8,x2,8
   120d2:	010a                	slli	x2,x2,0x2
   120d4:	e922                	fsw	f8,144(x2)
   120d6:	0700                	addi	x8,x2,896
   120d8:	d400                	sw	x8,40(x8)
   120da:	7d30                	flw	f12,120(x10)
   120dc:	d0a1d6e3          	bge	x3,x10,11de8 <raw_data+0x9a8>
   120e0:	454e                	lw	x10,208(x2)
   120e2:	4250                	lw	x12,4(x12)
   120e4:	9d5e                	add	x26,x26,x23
   120e6:	28d2                	fld	f17,272(x2)
   120e8:	0000                	unimp
   120ea:	db05                	beqz	x14,1201a <raw_data+0xbda>
   120ec:	20595053          	0x20595053
   120f0:	0020                	addi	x8,x2,8
   120f2:	d305010b          	0xd305010b
   120f6:	0a00                	addi	x8,x2,272
   120f8:	d600                	sw	x8,40(x12)
   120fa:	36112feb          	0x36112feb
   120fe:	9b81                	andi	x15,x15,-32
   12100:	454e                	lw	x10,208(x2)
   12102:	4250                	lw	x12,4(x12)
   12104:	9d5e                	add	x26,x26,x23
   12106:	31d2                	fld	f3,304(x2)
   12108:	0000                	unimp
   1210a:	41414427          	fsq	f20,1032(x2)
   1210e:	4c50                	lw	x12,28(x8)
   12110:	0020                	addi	x8,x2,8
   12112:	0220                	addi	x8,x2,264
   12114:	0c004627          	fsq	f0,204(x0) # cc <_start-0xffb4>
   12118:	d900                	sw	x8,48(x10)
   1211a:	4e68b77b          	0x4e68b77b
   1211e:	9cc8                	0x9cc8
   12120:	454e                	lw	x10,208(x2)
   12122:	9d5e5343          	0x9d5e5343
   12126:	35d2                	fld	f11,304(x2)
   12128:	0000                	unimp
   1212a:	8c04                	0x8c04
   1212c:	474f4f47          	fmsub.q	f30,f30,f20,f8,rmm
   12130:	004c                	addi	x11,x2,4
   12132:	0105                	addi	x2,x2,1
   12134:	9c04                	0x9c04
   12136:	0200                	addi	x8,x2,256
   12138:	dc00                	sw	x8,56(x8)
   1213a:	615a                	flw	f2,148(x2)
   1213c:	a18b7f87          	0xa18b7f87
   12140:	454e                	lw	x10,208(x2)
   12142:	5350                	lw	x12,36(x14)
   12144:	9d5e                	add	x26,x26,x23
   12146:	3bd2                	fld	f23,304(x2)
   12148:	0000                	unimp
   1214a:	b629                	j	11c54 <raw_data+0x814>
   1214c:	474f4f47          	fmsub.q	f30,f30,f20,f8,rmm
   12150:	004c                	addi	x11,x2,4
   12152:	b4290213          	addi	x4,x18,-1214
   12156:	0400                	addi	x8,x2,512
   12158:	df00                	sw	x8,56(x14)
   1215a:	7310                	flw	f12,32(x14)
   1215c:	5dd6                	lw	x27,116(x2)
   1215e:	2325                	jal	12686 <raw_data+0x1246>
   12160:	454e                	lw	x10,208(x2)
   12162:	4250                	lw	x12,4(x12)
   12164:	9d5e                	add	x26,x26,x23
   12166:	44d2                	lw	x9,20(x2)
   12168:	0000                	unimp
   1216a:	d32a                	sw	x10,164(x2)
   1216c:	20595053          	0x20595053
   12170:	0020                	addi	x8,x2,8
   12172:	011e                	slli	x2,x2,0x7
   12174:	d52a                	sw	x10,168(x2)
   12176:	0d00                	addi	x8,x2,656
   12178:	e100                	fsw	f8,0(x10)
   1217a:	96a2                	add	x13,x13,x8
   1217c:	3ebba3fb          	0x3ebba3fb
   12180:	454e                	lw	x10,208(x2)
   12182:	4250                	lw	x12,4(x12)
   12184:	9d5e                	add	x26,x26,x23
   12186:	4cd2                	lw	x25,20(x2)
   12188:	0000                	unimp
   1218a:	a036                	fsd	f13,0(x2)
   1218c:	474f4f47          	fmsub.q	f30,f30,f20,f8,rmm
   12190:	004c                	addi	x11,x2,4
   12192:	0220                	addi	x8,x2,264
   12194:	9936                	add	x18,x18,x13
   12196:	0a00                	addi	x8,x2,272
   12198:	e500                	fsw	f8,8(x10)
   1219a:	aa1d                	j	122d0 <raw_data+0xe90>
   1219c:	9008                	0x9008
   1219e:	e43d                	bnez	x8,1220c <raw_data+0xdcc>
   121a0:	454e                	lw	x10,208(x2)
   121a2:	9d5e5343          	0x9d5e5343
   121a6:	51d2                	lw	x3,52(x2)
   121a8:	0000                	unimp
   121aa:	a706                	fsd	f1,392(x2)
   121ac:	464e                	lw	x12,208(x2)
   121ae:	584c                	lw	x11,52(x8)
   121b0:	0020                	addi	x8,x2,8
   121b2:	0208                	addi	x10,x2,256
   121b4:	ae06                	fsd	f1,280(x2)
   121b6:	0d00                	addi	x8,x2,656
   121b8:	e800                	fsw	f8,16(x8)
   121ba:	a545                	j	1285a <raw_data+0x141a>
   121bc:	4062cb63          	blt	x5,x6,125d2 <raw_data+0x1192>
   121c0:	454e                	lw	x10,208(x2)
   121c2:	9d5e5343          	0x9d5e5343
   121c6:	54d2                	lw	x9,52(x2)
   121c8:	0000                	unimp
   121ca:	1629                	addi	x12,x12,-22
   121cc:	4141                	li	x2,16
   121ce:	4c50                	lw	x12,28(x8)
   121d0:	0020                	addi	x8,x2,8
   121d2:	0215                	addi	x4,x4,5
   121d4:	2929                	jal	125ee <raw_data+0x11ae>
   121d6:	0700                	addi	x8,x2,896
   121d8:	eb00                	fsw	f8,16(x14)
   121da:	9ac5                	andi	x13,x13,-15
   121dc:	09d9                	addi	x19,x19,22
   121de:	cae2                	sw	x24,84(x2)
   121e0:	454e                	lw	x10,208(x2)
   121e2:	4250                	lw	x12,4(x12)
   121e4:	9d5e                	add	x26,x26,x23
   121e6:	57d2                	lw	x15,52(x2)
   121e8:	0000                	unimp
   121ea:	ea26                	fsw	f9,20(x2)
   121ec:	20585053          	0x20585053
   121f0:	0020                	addi	x8,x2,8
   121f2:	d626011b          	0xd626011b
   121f6:	0700                	addi	x8,x2,896
   121f8:	ed00                	fsw	f8,24(x10)
   121fa:	a301                	j	126fa <raw_data+0x12ba>
   121fc:	f561                	bnez	x10,121c4 <raw_data+0xd84>
   121fe:	454e71db          	0x454e71db
   12202:	4250                	lw	x12,4(x12)
   12204:	9d5e                	add	x26,x26,x23
   12206:	60d2                	flw	f1,20(x2)
   12208:	0000                	unimp
   1220a:	9e1c                	0x9e1c
   1220c:	20495457          	0x20495457
   12210:	0020                	addi	x8,x2,8
   12212:	0114                	addi	x13,x2,128
   12214:	aa1c                	fsd	f15,16(x12)
   12216:	0c00                	addi	x8,x2,528
   12218:	ed00                	fsw	f8,24(x10)
   1221a:	cedd                	beqz	x13,122d8 <raw_data+0xe98>
   1221c:	1299                	addi	x5,x5,-26
   1221e:	454ec793          	xori	x15,x29,1108
   12222:	9d5e4243          	0x9d5e4243
   12226:	66d2                	flw	f13,20(x2)
   12228:	0000                	unimp
   1222a:	4d593d23          	0x4d593d23
   1222e:	2020                	fld	f8,64(x8)
   12230:	0020                	addi	x8,x2,8
   12232:	020a                	slli	x4,x4,0x2
   12234:	08004823          	0x8004823
   12238:	ef00                	fsw	f8,24(x14)
   1223a:	4f7f                	0x4f7f
   1223c:	d2a6                	sw	x9,100(x2)
   1223e:	1fb9                	addi	x31,x31,-18
   12240:	454e                	lw	x10,208(x2)
   12242:	9d5e4243          	0x9d5e4243
   12246:	6ad2                	flw	f21,20(x2)
   12248:	0000                	unimp
   1224a:	464ec537          	lui	x10,0x464ec
   1224e:	584c                	lw	x11,52(x8)
   12250:	0020                	addi	x8,x2,8
   12252:	0121                	addi	x2,x2,8
   12254:	0b00ce37          	lui	x28,0xb00c
   12258:	ef00                	fsw	f8,24(x14)
   1225a:	01e2                	slli	x3,x3,0x18
   1225c:	1b40                	addi	x8,x2,436
   1225e:	5435                	li	x8,-19
   12260:	454e                	lw	x10,208(x2)
   12262:	9d5e5343          	0x9d5e5343
   12266:	71d2                	flw	f3,52(x2)
   12268:	0000                	unimp
   1226a:	d625                	beqz	x12,121d2 <raw_data+0xd92>
   1226c:	464e                	lw	x12,208(x2)
   1226e:	584c                	lw	x11,52(x8)
   12270:	0020                	addi	x8,x2,8
   12272:	010d                	addi	x2,x2,3
   12274:	e125                	bnez	x10,122d4 <raw_data+0xe94>
   12276:	0200                	addi	x8,x2,256
   12278:	f200                	fsw	f8,32(x12)
   1227a:	b0f9                	j	11b48 <raw_data+0x708>
   1227c:	795a                	flw	f18,180(x2)
   1227e:	f1f2                	fsw	f28,224(x2)
   12280:	454e                	lw	x10,208(x2)
   12282:	4250                	lw	x12,4(x12)
   12284:	9d5e                	add	x26,x26,x23
   12286:	75d2                	flw	f11,52(x2)
   12288:	0000                	unimp
   1228a:	1428                	addi	x10,x2,552
   1228c:	4d59                	li	x26,22
   1228e:	2020                	fld	f8,64(x8)
   12290:	0020                	addi	x8,x2,8
   12292:	0209                	addi	x4,x4,2
   12294:	2328                	fld	f10,64(x14)
   12296:	0700                	addi	x8,x2,896
   12298:	f500                	fsw	f8,40(x10)
   1229a:	c47e                	sw	x31,8(x2)
   1229c:	df03aa8f          	0xdf03aa8f
   122a0:	454e                	lw	x10,208(x2)
   122a2:	9d5e5343          	0x9d5e5343
   122a6:	78d2                	flw	f17,52(x2)
   122a8:	0000                	unimp
   122aa:	853a                	mv	x10,x14
   122ac:	4d59                	li	x26,22
   122ae:	2020                	fld	f8,64(x8)
   122b0:	0020                	addi	x8,x2,8
   122b2:	010c                	addi	x11,x2,128
   122b4:	713a                	flw	f2,172(x2)
   122b6:	0800                	addi	x8,x2,16
   122b8:	f700                	fsw	f8,40(x14)
   122ba:	8a96                	mv	x21,x5
   122bc:	e06a                	fsw	f26,0(x2)
   122be:	454e054b          	0x454e054b
   122c2:	5350                	lw	x12,36(x14)
   122c4:	9d5e                	add	x26,x26,x23
   122c6:	7fd2                	flw	f31,52(x2)
   122c8:	0000                	unimp
   122ca:	9110                	0x9110
   122cc:	4d59                	li	x26,22
   122ce:	2020                	fld	f8,64(x8)
   122d0:	0020                	addi	x8,x2,8
   122d2:	021e                	slli	x4,x4,0x7
   122d4:	a210                	fsd	f12,0(x12)
   122d6:	0700                	addi	x8,x2,896
   122d8:	f800                	fsw	f8,48(x8)
   122da:	9fb9                	0x9fb9
   122dc:	d5b1                	beqz	x11,12228 <raw_data+0xde8>
   122de:	6b45                	lui	x22,0x11
   122e0:	454e                	lw	x10,208(x2)
   122e2:	4250                	lw	x12,4(x12)
   122e4:	9d5e                	add	x26,x26,x23
   122e6:	83d2                	mv	x7,x20
   122e8:	0000                	unimp
   122ea:	a534                	fsd	f13,72(x10)
   122ec:	474f4f47          	fmsub.q	f30,f30,f20,f8,rmm
   122f0:	004c                	addi	x11,x2,4
   122f2:	020c                	addi	x11,x2,256
   122f4:	9134                	0x9134
   122f6:	0800                	addi	x8,x2,16
   122f8:	fb00                	fsw	f8,48(x14)
   122fa:	5b59cd3b          	0x5b59cd3b
   122fe:	3dc0                	fld	f8,184(x11)
   12300:	454e                	lw	x10,208(x2)
   12302:	9d5e5343          	0x9d5e5343
   12306:	91d2                	add	x3,x3,x20
   12308:	0000                	unimp
   1230a:	bd21                	j	12122 <raw_data+0xce2>
   1230c:	20495457          	0x20495457
   12310:	0020                	addi	x8,x2,8
   12312:	011a                	slli	x2,x2,0x6
   12314:	bb21                	j	1202c <raw_data+0xbec>
   12316:	0700                	addi	x8,x2,896
   12318:	ff00                	fsw	f8,56(x14)
   1231a:	f186                	fsw	f1,224(x2)
   1231c:	2477d977          	0x2477d977
   12320:	454e                	lw	x10,208(x2)
   12322:	9d5e5343          	0x9d5e5343
   12326:	9ad2                	add	x21,x21,x20
   12328:	0000                	unimp
   1232a:	953a                	add	x10,x10,x14
   1232c:	2046                	fld	f0,80(x2)
   1232e:	2020                	fld	f8,64(x8)
   12330:	0020                	addi	x8,x2,8
   12332:	923a0207          	0x923a0207
   12336:	0c00                	addi	x8,x2,528
   12338:	0301                	addi	x6,x6,0
   1233a:	629e                	flw	f5,196(x2)
   1233c:	62c4                	flw	f9,4(x13)
   1233e:	c435                	beqz	x8,123aa <raw_data+0xf6a>
   12340:	454e                	lw	x10,208(x2)
   12342:	9d5e4243          	0x9d5e4243
   12346:	a1d2                	fsd	f20,192(x2)
   12348:	0000                	unimp
   1234a:	5053b22b          	0x5053b22b
   1234e:	2059                	jal	123d4 <raw_data+0xf94>
   12350:	0020                	addi	x8,x2,8
   12352:	0218                	addi	x14,x2,256
   12354:	03009e2b          	0x3009e2b
   12358:	0601                	addi	x12,x12,0
   1235a:	e75a                	fsw	f22,140(x2)
   1235c:	8a34                	0x8a34
   1235e:	454eb5e3          	0x454eb5e3
   12362:	9d5e4243          	0x9d5e4243
   12366:	aed2                	fsd	f20,344(x2)
   12368:	0000                	unimp
   1236a:	2620                	fld	f8,72(x12)
   1236c:	20495457          	0x20495457
   12370:	0020                	addi	x8,x2,8
   12372:	35200107          	0x35200107
   12376:	0a00                	addi	x8,x2,272
   12378:	0801                	addi	x16,x16,0
   1237a:	782a                	flw	f16,168(x2)
   1237c:	7d35                	lui	x26,0xfffed
   1237e:	454e8107          	0x454e8107
   12382:	9d5e4243          	0x9d5e4243
   12386:	b8d2                	fsd	f20,112(x2)
   12388:	0000                	unimp
   1238a:	221e                	fld	f4,448(x2)
   1238c:	4d59                	li	x26,22
   1238e:	2020                	fld	f8,64(x8)
   12390:	0020                	addi	x8,x2,8
   12392:	201e0203          	lb	x4,513(x28) # b00c201 <__BSS_END__+0xaff62a9>
   12396:	0200                	addi	x8,x2,256
   12398:	0b01                	addi	x22,x22,0
   1239a:	b689                	j	11edc <raw_data+0xa9c>
   1239c:	dbe0                	sw	x8,116(x15)
   1239e:	0f20                	addi	x8,x2,920
   123a0:	7551                	lui	x10,0xffff4
   123a2:	9d5e4243          	0x9d5e4243
   123a6:	bcd2                	fsd	f20,120(x2)
   123a8:	0000                	unimp
   123aa:	3e3a                	fld	f28,424(x2)
   123ac:	4141                	li	x2,16
   123ae:	4c50                	lw	x12,28(x8)
   123b0:	0020                	addi	x8,x2,8
   123b2:	0119                	addi	x2,x2,6
   123b4:	463a                	lw	x12,140(x2)
   123b6:	0500                	addi	x8,x2,640
   123b8:	0c01                	addi	x24,x24,0
   123ba:	89d8467b          	0x89d8467b
   123be:	454e3e43          	0x454e3e43
   123c2:	5350                	lw	x12,36(x14)
   123c4:	9d5e                	add	x26,x26,x23
   123c6:	c1d2                	sw	x20,192(x2)
   123c8:	0000                	unimp
   123ca:	fa32                	fsw	f12,52(x2)
   123cc:	5345                	li	x6,-15
   123ce:	2020                	fld	f8,64(x8)
   123d0:	0020                	addi	x8,x2,8
   123d2:	0120                	addi	x8,x2,136
   123d4:	f932                	fsw	f12,176(x2)
   123d6:	0b00                	addi	x8,x2,400
   123d8:	0c01                	addi	x24,x24,0
   123da:	6aa1a6f7          	0x6aa1a6f7
   123de:	9049                	srli	x8,x8,0x32
   123e0:	454e                	lw	x10,208(x2)
   123e2:	9d5e5343          	0x9d5e5343
   123e6:	c4d2                	sw	x20,72(x2)
   123e8:	0000                	unimp
   123ea:	3009                	jal	11bec <raw_data+0x7ac>
   123ec:	4141                	li	x2,16
   123ee:	4c50                	lw	x12,28(x8)
   123f0:	0020                	addi	x8,x2,8
   123f2:	0205                	addi	x4,x4,1
   123f4:	2e09                	jal	12706 <raw_data+0x12c6>
   123f6:	0500                	addi	x8,x2,640
   123f8:	0e01                	addi	x28,x28,0
   123fa:	e24e                	fsw	f19,4(x2)
   123fc:	3c28badb          	0x3c28badb
   12400:	7658                	flw	f14,44(x12)
   12402:	5350                	lw	x12,36(x14)
   12404:	9d5e                	add	x26,x26,x23
   12406:	ced2                	sw	x20,92(x2)
   12408:	0000                	unimp
   1240a:	20468733          	0x20468733
   1240e:	2020                	fld	f8,64(x8)
   12410:	0020                	addi	x8,x2,8
   12412:	020e                	slli	x4,x4,0x3
   12414:	0a007833          	0xa007833
   12418:	0e01                	addi	x28,x28,0
   1241a:	4f42dcef          	jal	x25,3f90e <__BSS_END__+0x299b6>
   1241e:	7c2e                	flw	f24,232(x2)
   12420:	454e                	lw	x10,208(x2)
   12422:	5350                	lw	x12,36(x14)
   12424:	9d5e                	add	x26,x26,x23
   12426:	d4d2                	sw	x20,104(x2)
   12428:	0000                	unimp
   1242a:	7b1c                	flw	f15,48(x14)
   1242c:	464e                	lw	x12,208(x2)
   1242e:	584c                	lw	x11,52(x8)
   12430:	0020                	addi	x8,x2,8
   12432:	671c0103          	lb	x2,1649(x24)
   12436:	0400                	addi	x8,x2,512
   12438:	0f01                	addi	x30,x30,0
   1243a:	45ae                	lw	x11,200(x2)
   1243c:	d8d2                	sw	x20,112(x2)
   1243e:	bcad                	j	11eb8 <raw_data+0xa78>
   12440:	454e                	lw	x10,208(x2)
   12442:	9d5e4243          	0x9d5e4243
   12446:	dad2                	sw	x20,116(x2)
   12448:	0000                	unimp
   1244a:	2730                	fld	f12,72(x14)
   1244c:	4141                	li	x2,16
   1244e:	4c50                	lw	x12,28(x8)
   12450:	0020                	addi	x8,x2,8
   12452:	011f 3630 0400      	0x4003630011f
   12458:	1201                	addi	x4,x4,-32
   1245a:	2422                	fld	f8,8(x2)
   1245c:	8015                	srli	x8,x8,0x5
   1245e:	454ecf4b          	0x454ecf4b
   12462:	5350                	lw	x12,36(x14)
   12464:	9d5e                	add	x26,x26,x23
   12466:	ddd2                	sw	x20,248(x2)
   12468:	0000                	unimp
   1246a:	081a                	slli	x16,x16,0x6
   1246c:	4141                	li	x2,16
   1246e:	4c50                	lw	x12,28(x8)
   12470:	0020                	addi	x8,x2,8
   12472:	011e                	slli	x2,x2,0x7
   12474:	181a                	slli	x16,x16,0x26
   12476:	0600                	addi	x8,x2,768
   12478:	1301                	addi	x6,x6,-32
   1247a:	fb56                	fsw	f21,180(x2)
   1247c:	3354                	fld	f13,160(x14)
   1247e:	b164                	fsd	f9,224(x10)
   12480:	454e                	lw	x10,208(x2)
   12482:	4250                	lw	x12,4(x12)
   12484:	9d5e                	add	x26,x26,x23
   12486:	ead2                	fsw	f20,84(x2)
   12488:	0000                	unimp
   1248a:	a238                	fsd	f14,64(x12)
   1248c:	20585053          	0x20585053
   12490:	0020                	addi	x8,x2,8
   12492:	020d                	addi	x4,x4,3
   12494:	a438                	fsd	f14,72(x8)
   12496:	0c00                	addi	x8,x2,528
   12498:	1701                	addi	x14,x14,-32
   1249a:	b175                	j	12146 <raw_data+0xd06>
   1249c:	a1bd                	j	1290a <raw_data+0x14ca>
   1249e:	454e973b          	0x454e973b
   124a2:	9d5e4243          	0x9d5e4243
   124a6:	f4d2                	fsw	f20,104(x2)
   124a8:	0000                	unimp
   124aa:	c21d                	beqz	x12,124d0 <raw_data+0x1090>
   124ac:	2046                	fld	f0,80(x2)
   124ae:	2020                	fld	f8,64(x8)
   124b0:	0020                	addi	x8,x2,8
   124b2:	c51d0117          	auipc	x2,0xc51d0
   124b6:	0300                	addi	x8,x2,384
   124b8:	1801                	addi	x16,x16,-32
   124ba:	761f 118c 7eba      	0x7eba118c761f
   124c0:	454e                	lw	x10,208(x2)
   124c2:	9d5e4243          	0x9d5e4243
   124c6:	fbd2                	fsw	f20,244(x2)
   124c8:	0000                	unimp
   124ca:	4d593323          	0x4d593323
   124ce:	2020                	fld	f8,64(x8)
   124d0:	0020                	addi	x8,x2,8
   124d2:	020c                	addi	x11,x2,256
   124d4:	03003323          	0x3003323
   124d8:	1801                	addi	x16,x16,-32
   124da:	ee8e                	fsw	f3,92(x2)
   124dc:	f954                	fsw	f13,52(x10)
   124de:	454e5fb3          	0x454e5fb3
   124e2:	9d5e4243          	0x9d5e4243
   124e6:	fed2                	fsw	f20,124(x2)
   124e8:	0000                	unimp
   124ea:	942c                	0x942c
   124ec:	464e                	lw	x12,208(x2)
   124ee:	584c                	lw	x11,52(x8)
   124f0:	0020                	addi	x8,x2,8
   124f2:	0204                	addi	x9,x2,256
   124f4:	952c                	0x952c
   124f6:	0c00                	addi	x8,x2,528
   124f8:	1b01                	addi	x22,x22,-32
   124fa:	ca11                	beqz	x12,1250e <raw_data+0x10ce>
   124fc:	5e66                	lw	x28,120(x2)
   124fe:	e3b5                	bnez	x15,12562 <raw_data+0x1122>
   12500:	454e                	lw	x10,208(x2)
   12502:	4250                	lw	x12,4(x12)
   12504:	9d5e                	add	x26,x26,x23
   12506:	000004d3          	fadd.s	f9,f0,f0,rne
   1250a:	ae02                	fsd	f0,280(x2)
   1250c:	20595053          	0x20595053
   12510:	0020                	addi	x8,x2,8
   12512:	0218                	addi	x14,x2,256
   12514:	a202                	fsd	f0,256(x2)
   12516:	0500                	addi	x8,x2,640
   12518:	1e01                	addi	x28,x28,-32
   1251a:	4252                	lw	x4,20(x2)
   1251c:	14bc                	addi	x15,x2,616
   1251e:	2f34                	fld	f13,88(x14)
   12520:	7542                	flw	f10,48(x2)
   12522:	9d5e5343          	0x9d5e5343
   12526:	00000ed3          	fadd.s	f29,f0,f0,rne
   1252a:	a00c                	fsd	f11,0(x8)
   1252c:	5345                	li	x6,-15
   1252e:	2020                	fld	f8,64(x8)
   12530:	0020                	addi	x8,x2,8
   12532:	021c                	addi	x15,x2,256
   12534:	a30c                	fsd	f11,0(x14)
   12536:	0700                	addi	x8,x2,896
   12538:	2201                	jal	12638 <raw_data+0x11f8>
   1253a:	bb76                	fsd	f29,432(x2)
   1253c:	79f4                	flw	f13,116(x11)
   1253e:	c00e                	sw	x3,0(x2)
   12540:	454e                	lw	x10,208(x2)
   12542:	9d5e4243          	0x9d5e4243
   12546:	000016d3          	fadd.s	f13,f0,f0,rtz
   1254a:	6901                	0x6901
   1254c:	4d59                	li	x26,22
   1254e:	2020                	fld	f8,64(x8)
   12550:	0020                	addi	x8,x2,8
   12552:	6d010203          	lb	x4,1744(x2) # c51e2b82 <__BSS_END__+0xc51ccc2a>
   12556:	0500                	addi	x8,x2,640
   12558:	2201                	jal	12658 <raw_data+0x1218>
   1255a:	fbd6                	fsw	f21,244(x2)
   1255c:	220f8903          	lb	x18,544(x31)
   12560:	454e                	lw	x10,208(x2)
   12562:	4250                	lw	x12,4(x12)
   12564:	9d5e                	add	x26,x26,x23
   12566:	000020d3          	fadd.s	f1,f0,f0,rdn
   1256a:	390d                	jal	1219c <raw_data+0xd5c>
   1256c:	2046                	fld	f0,80(x2)
   1256e:	2020                	fld	f8,64(x8)
   12570:	0020                	addi	x8,x2,8
   12572:	3f0d0103          	lb	x2,1008(x26) # fffed3f0 <__BSS_END__+0xfffd7498>
   12576:	0300                	addi	x8,x2,384
   12578:	2501                	jal	12b78 <raw_data+0x1738>
   1257a:	8988                	0x8988
   1257c:	0978                	addi	x14,x2,156
   1257e:	2911                	jal	12992 <raw_data+0x1552>
   12580:	454e                	lw	x10,208(x2)
   12582:	9d5e5343          	0x9d5e5343
   12586:	00002ad3          	fadd.s	f21,f0,f0,rdn
   1258a:	6c00                	flw	f8,24(x8)
   1258c:	4d59                	li	x26,22
   1258e:	2020                	fld	f8,64(x8)
   12590:	0020                	addi	x8,x2,8
   12592:	67000117          	auipc	x2,0x67000
   12596:	0d00                	addi	x8,x2,656
   12598:	2801                	jal	125a8 <raw_data+0x1168>
   1259a:	e7b9                	bnez	x15,125e8 <raw_data+0x11a8>
   1259c:	5612                	lw	x12,36(x2)
   1259e:	6eb9                	lui	x29,0xe
   125a0:	454e                	lw	x10,208(x2)
   125a2:	9d5e5343          	0x9d5e5343
   125a6:	00002fd3          	fadd.s	f31,f0,f0,rdn
   125aa:	e100                	fsw	f8,0(x10)
   125ac:	4141                	li	x2,16
   125ae:	4c50                	lw	x12,28(x8)
   125b0:	0020                	addi	x8,x2,8
   125b2:	0104                	addi	x9,x2,128
   125b4:	d200                	sw	x8,32(x12)
   125b6:	0600                	addi	x8,x2,768
   125b8:	2901                	jal	129c8 <raw_data+0x1588>
   125ba:	ffcd                	bnez	x15,12574 <raw_data+0x1134>
   125bc:	8861                	andi	x8,x8,24
   125be:	454e0467          	jalr	x8,1108(x28)
   125c2:	4250                	lw	x12,4(x12)
   125c4:	9d5e                	add	x26,x26,x23
   125c6:	000035d3          	fadd.s	f11,f0,f0,rup
   125ca:	20463b27          	fsd	f4,534(x12) # 6216 <_start-0x9e6a>
   125ce:	2020                	fld	f8,64(x8)
   125d0:	0020                	addi	x8,x2,8
   125d2:	0122                	slli	x2,x2,0x8
   125d4:	04004727          	fsq	f0,78(x0) # 4e <_start-0x10032>
   125d8:	2c01                	jal	127e8 <raw_data+0x13a8>
   125da:	a016                	fsd	f5,0(x2)
   125dc:	8ad9                	andi	x13,x13,22
   125de:	7e3a                	flw	f28,172(x2)
   125e0:	454e                	lw	x10,208(x2)
   125e2:	9d5e5343          	0x9d5e5343
   125e6:	00003fd3          	fadd.s	f31,f0,f0,rup
   125ea:	50536c33          	0x50536c33
   125ee:	2058                	fld	f14,128(x8)
   125f0:	0020                	addi	x8,x2,8
   125f2:	5c330207          	0x5c330207
   125f6:	0700                	addi	x8,x2,896
   125f8:	2f01                	jal	12d08 <raw_data+0x18c8>
   125fa:	3050                	fld	f12,160(x8)
   125fc:	6e47fb87          	0x6e47fb87
   12600:	454e                	lw	x10,208(x2)
   12602:	4250                	lw	x12,4(x12)
   12604:	9d5e                	add	x26,x26,x23
   12606:	000045d3          	fadd.s	f11,f0,f0,rmm
   1260a:	1905                	addi	x18,x18,-31
   1260c:	20495457          	0x20495457
   12610:	0020                	addi	x8,x2,8
   12612:	020e                	slli	x4,x4,0x3
   12614:	2d05                	jal	12c44 <raw_data+0x1804>
   12616:	0600                	addi	x8,x2,768
   12618:	3001                	jal	11e18 <raw_data+0x9d8>
   1261a:	b3b1                	j	12366 <raw_data+0xf26>
   1261c:	e8b1                	bnez	x9,12670 <raw_data+0x1230>
   1261e:	454ec5e7          	0x454ec5e7
   12622:	9d5e4243          	0x9d5e4243
   12626:	000051d3          	fadd.s	f3,f0,f0,unknown
   1262a:	20468e2b          	0x20468e2b
   1262e:	2020                	fld	f8,64(x8)
   12630:	0020                	addi	x8,x2,8
   12632:	0220                	addi	x8,x2,264
   12634:	04009a2b          	0x4009a2b
   12638:	3601                	jal	12138 <raw_data+0xcf8>
   1263a:	b14e                	fsd	f19,160(x2)
   1263c:	abcc                	fsd	f11,144(x15)
   1263e:	454edf67          	0x454edf67
   12642:	9d5e4243          	0x9d5e4243
   12646:	000054d3          	fadd.s	f9,f0,f0,unknown
   1264a:	3826                	fld	f16,104(x2)
   1264c:	474f4f47          	fmsub.q	f30,f30,f20,f8,rmm
   12650:	004c                	addi	x11,x2,4
   12652:	0220                	addi	x8,x2,264
   12654:	4226                	lw	x4,72(x2)
   12656:	0900                	addi	x8,x2,144
   12658:	3901                	jal	12268 <raw_data+0xe28>
   1265a:	f776                	fsw	f29,172(x2)
   1265c:	8f95                	sub	x15,x15,x13
   1265e:	0b81                	addi	x23,x23,0
   12660:	454e                	lw	x10,208(x2)
   12662:	9d5e5343          	0x9d5e5343
   12666:	000059d3          	fadd.s	f19,f0,f0,unknown
   1266a:	c410                	sw	x12,8(x8)
   1266c:	20595053          	0x20595053
   12670:	0020                	addi	x8,x2,8
   12672:	021e                	slli	x4,x4,0x7
   12674:	bf10                	fsd	f12,56(x14)
   12676:	0d00                	addi	x8,x2,656
   12678:	3b01                	jal	12388 <raw_data+0xf48>
   1267a:	c3ac                	sw	x11,64(x15)
   1267c:	19cd3fdb          	0x19cd3fdb
   12680:	454e                	lw	x10,208(x2)
   12682:	5350                	lw	x12,36(x14)
   12684:	9d5e                	add	x26,x26,x23
   12686:	00005fd3          	fadd.s	f31,f0,f0,unknown
   1268a:	9e0e                	add	x28,x28,x3
   1268c:	20585053          	0x20585053
   12690:	0020                	addi	x8,x2,8
   12692:	a80e0103          	lb	x2,-1408(x28)
   12696:	0800                	addi	x8,x2,16
   12698:	3d01                	jal	124a8 <raw_data+0x1068>
   1269a:	3979                	jal	12338 <raw_data+0xef8>
   1269c:	5a12                	lw	x20,36(x2)
   1269e:	fd41                	bnez	x10,12636 <raw_data+0x11f6>
   126a0:	454e                	lw	x10,208(x2)
   126a2:	9d5e4243          	0x9d5e4243
   126a6:	000064d3          	fadd.s	f9,f0,f0,unknown
   126aa:	41410c17          	auipc	x24,0x41410
   126ae:	4c50                	lw	x12,28(x8)
   126b0:	0020                	addi	x8,x2,8
   126b2:	021c                	addi	x15,x2,256
   126b4:	05001517          	auipc	x10,0x5001
   126b8:	3f01                	jal	125c8 <raw_data+0x1188>
   126ba:	32a8                	fld	f10,96(x13)
   126bc:	689e                	flw	f17,196(x2)
   126be:	6dc5                	lui	x27,0x11
   126c0:	454e                	lw	x10,208(x2)
   126c2:	9d5e4243          	0x9d5e4243
   126c6:	000067d3          	fadd.s	f15,f0,f0,unknown
   126ca:	6b2a                	flw	f22,136(x2)
   126cc:	5345                	li	x6,-15
   126ce:	2020                	fld	f8,64(x8)
   126d0:	0020                	addi	x8,x2,8
   126d2:	0119                	addi	x2,x2,6
   126d4:	782a                	flw	f16,168(x2)
   126d6:	0900                	addi	x8,x2,144
   126d8:	4201                	li	x4,0
   126da:	27b2                	fld	f15,264(x2)
   126dc:	98dd                	andi	x9,x9,-9
   126de:	47b0                	lw	x12,72(x15)
   126e0:	454e                	lw	x10,208(x2)
   126e2:	5350                	lw	x12,36(x14)
   126e4:	9d5e                	add	x26,x26,x23
   126e6:	000070d3          	fadd.s	f1,f0,f0
   126ea:	5053ba2b          	0x5053ba2b
   126ee:	2059                	jal	12774 <raw_data+0x1334>
   126f0:	0020                	addi	x8,x2,8
   126f2:	0219                	addi	x4,x4,6
   126f4:	0a00bb2b          	0xa00bb2b
   126f8:	4501                	li	x10,0
   126fa:	b29a10af          	0xb29a10af
   126fe:	454ed587          	0x454ed587
   12702:	9d5e5343          	0x9d5e5343
   12706:	000074d3          	fadd.s	f9,f0,f0
   1270a:	1225                	addi	x4,x4,-23
   1270c:	20595053          	0x20595053
   12710:	0020                	addi	x8,x2,8
   12712:	011c                	addi	x15,x2,128
   12714:	0425                	addi	x8,x8,9
   12716:	0500                	addi	x8,x2,640
   12718:	4701                	li	x14,0
   1271a:	9f4e16bb          	0x9f4e16bb
   1271e:	7456                	flw	f8,116(x2)
   12720:	454e                	lw	x10,208(x2)
   12722:	9d5e5343          	0x9d5e5343
   12726:	000078d3          	fadd.s	f17,f0,f0
   1272a:	d519                	beqz	x10,12638 <raw_data+0x11f8>
   1272c:	4d59                	li	x26,22
   1272e:	2020                	fld	f8,64(x8)
   12730:	0020                	addi	x8,x2,8
   12732:	d1190113          	addi	x2,x18,-751
   12736:	0400                	addi	x8,x2,512
   12738:	4801                	li	x16,0
   1273a:	2f59                	jal	12ed0 <raw_data+0x1a90>
   1273c:	75aa                	flw	f11,168(x2)
   1273e:	f2f4                	fsw	f13,100(x13)
   12740:	454e                	lw	x10,208(x2)
   12742:	5350                	lw	x12,36(x14)
   12744:	9d5e                	add	x26,x26,x23
   12746:	00007fd3          	fadd.s	f31,f0,f0
   1274a:	2046a617          	auipc	x12,0x2046a
   1274e:	2020                	fld	f8,64(x8)
   12750:	0020                	addi	x8,x2,8
   12752:	0114                	addi	x13,x2,128
   12754:	0200a417          	auipc	x8,0x200a
   12758:	4801                	li	x16,0
   1275a:	13fd                	addi	x7,x7,-1
   1275c:	4fd2                	lw	x31,20(x2)
   1275e:	454e226f          	jal	x4,f4bb2 <__BSS_END__+0xdec5a>
   12762:	9d5e5343          	0x9d5e5343
   12766:	000085d3          	fadd.s	f11,f1,f0,rne
   1276a:	50536c1b          	0x50536c1b
   1276e:	2058                	fld	f14,128(x8)
   12770:	0020                	addi	x8,x2,8
   12772:	0206                	slli	x4,x4,0x1
   12774:	0700671b          	0x700671b
   12778:	4a01                	li	x20,0
   1277a:	e191                	bnez	x11,1277e <raw_data+0x133e>
   1277c:	3b1e                	fld	f22,480(x2)
   1277e:	f6c9                	bnez	x13,12708 <raw_data+0x12c8>
   12780:	454e                	lw	x10,208(x2)
   12782:	5350                	lw	x12,36(x14)
   12784:	9d5e                	add	x26,x26,x23
   12786:	00008dd3          	fadd.s	f27,f1,f0,rne
   1278a:	50539933          	0x50539933
   1278e:	2059                	jal	12814 <raw_data+0x13d4>
   12790:	0020                	addi	x8,x2,8
   12792:	aa330123          	sb	x3,-1374(x6)
   12796:	0400                	addi	x8,x2,512
   12798:	4c01                	li	x24,0
   1279a:	cea5                	beqz	x13,12812 <raw_data+0x13d2>
   1279c:	3cb6                	fld	f25,360(x2)
   1279e:	1bac                	addi	x11,x2,504
   127a0:	454e                	lw	x10,208(x2)
   127a2:	4250                	lw	x12,4(x12)
   127a4:	9d5e                	add	x26,x26,x23
   127a6:	000090d3          	fadd.s	f1,f1,f0,rtz
   127aa:	54577b2b          	0x54577b2b
   127ae:	2049                	jal	12830 <raw_data+0x13f0>
   127b0:	0020                	addi	x8,x2,8
   127b2:	8b2b020f          	0x8b2b020f
   127b6:	0a00                	addi	x8,x2,272
   127b8:	4e01                	li	x28,0
   127ba:	eb36                	fsw	f13,148(x2)
   127bc:	4f69ef03          	0x4f69ef03
   127c0:	53507953          	0x53507953
   127c4:	9d5e                	add	x26,x26,x23
   127c6:	000095d3          	fadd.s	f11,f1,f0,rtz
   127ca:	54571f1b          	0x54571f1b
   127ce:	2049                	jal	12850 <raw_data+0x1410>
   127d0:	0020                	addi	x8,x2,8
   127d2:	0208                	addi	x10,x2,256
   127d4:	0b00201b          	0xb00201b
   127d8:	4f01                	li	x30,0
   127da:	61dc                	flw	f15,4(x11)
   127dc:	b705                	j	126fc <raw_data+0x12bc>
   127de:	82ad                	srli	x13,x13,0xb
   127e0:	454e                	lw	x10,208(x2)
   127e2:	4250                	lw	x12,4(x12)
   127e4:	9d5e                	add	x26,x26,x23
   127e6:	00009fd3          	fadd.s	f31,f1,f0,rtz
   127ea:	1a39                	addi	x20,x20,-18
   127ec:	474f4f47          	fmsub.q	f30,f30,f20,f8,rmm
   127f0:	004c                	addi	x11,x2,4
   127f2:	1b390103          	lb	x2,435(x18)
   127f6:	0200                	addi	x8,x2,256
   127f8:	5101                	li	x2,-32
   127fa:	282ed3cf          	fnmadd.s	f7,f29,f2,f5,unknown
   127fe:	0406                	slli	x8,x8,0x1
   12800:	454e                	lw	x10,208(x2)
   12802:	9d5e5343          	0x9d5e5343
   12806:	0000b3d3          	fadd.s	f7,f1,f0,rup
   1280a:	5457e02b          	0x5457e02b
   1280e:	2049                	jal	12890 <raw_data+0x1450>
   12810:	0020                	addi	x8,x2,8
   12812:	d42b010b          	0xd42b010b
   12816:	0700                	addi	x8,x2,896
   12818:	5701                	li	x14,-32
   1281a:	7a3d                	lui	x20,0xfffef
   1281c:	db7a                	sw	x30,180(x2)
   1281e:	59f8                	lw	x14,116(x11)
   12820:	454e                	lw	x10,208(x2)
   12822:	5350                	lw	x12,36(x14)
   12824:	9d5e                	add	x26,x26,x23
   12826:	0000bcd3          	fadd.s	f25,f1,f0,rup
   1282a:	4d59d733          	0x4d59d733
   1282e:	2020                	fld	f8,64(x8)
   12830:	0020                	addi	x8,x2,8
   12832:	c8330213          	addi	x4,x6,-893
   12836:	0500                	addi	x8,x2,640
   12838:	5a01                	li	x20,-32
   1283a:	552c                	lw	x11,104(x10)
   1283c:	a6f0                	fsd	f12,200(x13)
   1283e:	60c9                	lui	x1,0x12
   12840:	454e                	lw	x10,208(x2)
   12842:	5350                	lw	x12,36(x14)
   12844:	9d5e                	add	x26,x26,x23
   12846:	0000c1d3          	fadd.s	f3,f1,f0,rmm
   1284a:	41416b23          	0x41416b23
   1284e:	4c50                	lw	x12,28(x8)
   12850:	0020                	addi	x8,x2,8
   12852:	0120                	addi	x8,x2,136
   12854:	02007e23          	0x2007e23
   12858:	5b01                	li	x22,-32
   1285a:	40fd                	li	x1,31
   1285c:	98fe                	add	x17,x17,x31
   1285e:	31c6                	fld	f3,112(x2)
   12860:	454e                	lw	x10,208(x2)
   12862:	9d5e5343          	0x9d5e5343
   12866:	0000c5d3          	fadd.s	f11,f1,f0,rmm
   1286a:	3218                	fld	f14,32(x12)
   1286c:	2046                	fld	f0,80(x2)
   1286e:	2020                	fld	f8,64(x8)
   12870:	0020                	addi	x8,x2,8
   12872:	39180217          	auipc	x4,0x39180
   12876:	0700                	addi	x8,x2,896
   12878:	5d01                	li	x26,-32
   1287a:	8309fdc7          	fmsub.d	f27,f19,f16,f16
   1287e:	481a                	lw	x16,132(x2)
   12880:	454e                	lw	x10,208(x2)
   12882:	4250                	lw	x12,4(x12)
   12884:	9d5e                	add	x26,x26,x23
   12886:	0000cfd3          	fadd.s	f31,f1,f0,rmm
   1288a:	4a11                	li	x20,4
   1288c:	20585053          	0x20585053
   12890:	0020                	addi	x8,x2,8
   12892:	42110213          	addi	x4,x2,1057 # 670129b3 <__BSS_END__+0x66ffca5b>
   12896:	0a00                	addi	x8,x2,272
   12898:	5e01                	li	x28,-32
   1289a:	8e90                	0x8e90
   1289c:	db5e                	sw	x23,180(x2)
   1289e:	454eb1cb          	0x454eb1cb
   128a2:	9d5e5343          	0x9d5e5343
   128a6:	0000d9d3          	fadd.s	f19,f1,f0,unknown
   128aa:	2202                	fld	f4,0(x2)
   128ac:	4141                	li	x2,16
   128ae:	4c50                	lw	x12,28(x8)
   128b0:	0020                	addi	x8,x2,8
   128b2:	21020103          	lb	x2,528(x4) # 39192a82 <__BSS_END__+0x3917cb2a>
   128b6:	0800                	addi	x8,x2,16
   128b8:	5f01                	li	x30,-32
   128ba:	f4a1                	bnez	x9,12802 <raw_data+0x13c2>
   128bc:	2b2e                	fld	f22,200(x2)
   128be:	50d0                	lw	x12,36(x9)
   128c0:	53437757          	0x53437757
   128c4:	9d5e                	add	x26,x26,x23
   128c6:	0000ded3          	fadd.s	f29,f1,f0,unknown
   128ca:	54577c33          	0x54577c33
   128ce:	2049                	jal	12950 <raw_data+0x1510>
   128d0:	0020                	addi	x8,x2,8
   128d2:	0222                	slli	x4,x4,0x8
   128d4:	07007c33          	0x7007c33
   128d8:	6001                	0x6001
   128da:	2d7ffc53          	0x2d7ffc53
   128de:	0ddd                	addi	x27,x27,23
   128e0:	454e                	lw	x10,208(x2)
   128e2:	5350                	lw	x12,36(x14)
   128e4:	9d5e                	add	x26,x26,x23
   128e6:	0000e8d3          	fadd.s	f17,f1,f0,unknown
   128ea:	8936                	mv	x18,x13
   128ec:	464e                	lw	x12,208(x2)
   128ee:	584c                	lw	x11,52(x8)
   128f0:	0020                	addi	x8,x2,8
   128f2:	9036020f          	0x9036020f
   128f6:	0300                	addi	x8,x2,384
   128f8:	6201                	0x6201
   128fa:	eee31d4f          	fnmadd.q	f26,f6,f14,f29,rtz
   128fe:	e508                	fsw	f10,8(x10)
   12900:	454e                	lw	x10,208(x2)
   12902:	4250                	lw	x12,4(x12)
   12904:	9d5e                	add	x26,x26,x23
   12906:	0000ecd3          	fadd.s	f25,f1,f0,unknown
   1290a:	9311                	srli	x14,x14,0x24
   1290c:	4141                	li	x2,16
   1290e:	4c50                	lw	x12,28(x8)
   12910:	0020                	addi	x8,x2,8
   12912:	021e                	slli	x4,x4,0x7
   12914:	a611                	j	12c18 <raw_data+0x17d8>
   12916:	0a00                	addi	x8,x2,272
   12918:	6401                	0x6401
   1291a:	f90c                	fsw	f11,48(x10)
   1291c:	5daa                	lw	x27,168(x2)
   1291e:	454eeeb7          	lui	x29,0x454ee
   12922:	4250                	lw	x12,4(x12)
   12924:	9d5e                	add	x26,x26,x23
   12926:	0000f3d3          	fadd.s	f7,f1,f0
   1292a:	4f47231b          	0x4f47231b
   1292e:	004c474f          	fnmadd.s	f14,f24,f4,f0,rmm
   12932:	0210                	addi	x12,x2,256
   12934:	0600171b          	0x600171b
   12938:	6601                	0x6601
   1293a:	34f6                	fld	f9,376(x2)
   1293c:	88f31067          	0x88f31067
   12940:	454e                	lw	x10,208(x2)
   12942:	9d5e4243          	0x9d5e4243
   12946:	0000fdd3          	fadd.s	f27,f1,f0
   1294a:	4d05                	li	x26,1
   1294c:	5345                	li	x6,-15
   1294e:	2020                	fld	f8,64(x8)
   12950:	0020                	addi	x8,x2,8
   12952:	0205                	addi	x4,x4,1
   12954:	4d05                	li	x26,1
   12956:	0b00                	addi	x8,x2,400
   12958:	6b01                	0x6b01
   1295a:	590e                	lw	x18,224(x2)
   1295c:	95472b6f          	jal	x22,fff84ab0 <__BSS_END__+0xfff6eb58>
   12960:	454e                	lw	x10,208(x2)
   12962:	5350                	lw	x12,36(x14)
   12964:	9d5e                	add	x26,x26,x23
   12966:	01d4                	addi	x13,x2,196
   12968:	0000                	unimp
   1296a:	20468b2b          	0x20468b2b
   1296e:	2020                	fld	f8,64(x8)
   12970:	0020                	addi	x8,x2,8
   12972:	0218                	addi	x14,x2,256
   12974:	0600822b          	0x600822b
   12978:	6d01                	0x6d01
   1297a:	d6fdc807          	flq	f16,-657(x27) # 10d6f <__bswapdi2+0x9c7>
   1297e:	6fda                	flw	f31,148(x2)
   12980:	454e                	lw	x10,208(x2)
   12982:	4250                	lw	x12,4(x12)
   12984:	9d5e                	add	x26,x26,x23
   12986:	05d4                	addi	x13,x2,708
   12988:	0000                	unimp
   1298a:	0321                	addi	x6,x6,8
   1298c:	474f4f47          	fmsub.q	f30,f30,f20,f8,rmm
   12990:	004c                	addi	x11,x2,4
   12992:	fa200213          	li	x4,-94
   12996:	0600                	addi	x8,x2,768
   12998:	6d01                	0x6d01
   1299a:	ea6341bb          	0xea6341bb
   1299e:	ed78                	fsw	f14,92(x10)
   129a0:	454e                	lw	x10,208(x2)
   129a2:	9d5e4243          	0x9d5e4243
   129a6:	0fd4                	addi	x13,x2,980
   129a8:	0000                	unimp
   129aa:	ff39                	bnez	x14,12908 <raw_data+0x14c8>
   129ac:	4d59                	li	x26,22
   129ae:	2020                	fld	f8,64(x8)
   129b0:	0020                	addi	x8,x2,8
   129b2:	0109                	addi	x2,x2,2
   129b4:	fb39                	bnez	x14,1290a <raw_data+0x14ca>
   129b6:	0300                	addi	x8,x2,384
   129b8:	7001                	c.lui	x0,0xfffe0
   129ba:	b4c6                	fsd	f17,104(x2)
   129bc:	9776                	add	x14,x14,x29
   129be:	c591                	beqz	x11,129ca <raw_data+0x158a>
   129c0:	454e                	lw	x10,208(x2)
   129c2:	9d5e5343          	0x9d5e5343
   129c6:	19d4                	addi	x13,x2,244
   129c8:	0000                	unimp
   129ca:	522c                	lw	x11,96(x12)
   129cc:	4141                	li	x2,16
   129ce:	4c50                	lw	x12,28(x8)
   129d0:	0020                	addi	x8,x2,8
   129d2:	3e2c0223          	sb	x2,996(x24) # 41422a8e <__BSS_END__+0x4140cb36>
   129d6:	0300                	addi	x8,x2,384
   129d8:	7201                	lui	x4,0xfffe0
   129da:	1ef4                	addi	x13,x2,892
   129dc:	7821                	lui	x16,0xfffe8
   129de:	71b8                	flw	f14,96(x11)
   129e0:	454e                	lw	x10,208(x2)
   129e2:	5350                	lw	x12,36(x14)
   129e4:	9d5e                	add	x26,x26,x23
   129e6:	28d4                	fld	f13,144(x9)
   129e8:	0000                	unimp
   129ea:	4714                	lw	x13,8(x14)
   129ec:	20585053          	0x20585053
   129f0:	0020                	addi	x8,x2,8
   129f2:	3d14020f          	0x3d14020f
   129f6:	0b00                	addi	x8,x2,400
   129f8:	7501                	lui	x10,0xfffe0
   129fa:	198e                	slli	x19,x19,0x23
   129fc:	c0c4                	sw	x9,4(x9)
   129fe:	a6df 454e 5343      	0x5343454ea6df
   12a04:	9d5e                	add	x26,x26,x23
   12a06:	2fd4                	fld	f13,152(x15)
   12a08:	0000                	unimp
   12a0a:	e530                	fsw	f12,72(x10)
   12a0c:	5345                	li	x6,-15
   12a0e:	2020                	fld	f8,64(x8)
   12a10:	0020                	addi	x8,x2,8
   12a12:	0204                	addi	x9,x2,256
   12a14:	de30                	sw	x12,120(x12)
   12a16:	0d00                	addi	x8,x2,656
   12a18:	7701                	lui	x14,0xfffe0
   12a1a:	3811                	jal	1222e <raw_data+0xdee>
   12a1c:	a8ea                	fsd	f26,80(x2)
   12a1e:	38b4                	fld	f13,112(x9)
   12a20:	454e                	lw	x10,208(x2)
   12a22:	4250                	lw	x12,4(x12)
   12a24:	9d5e                	add	x26,x26,x23
   12a26:	39d4                	fld	f13,176(x11)
   12a28:	0000                	unimp
   12a2a:	8231                	srli	x12,x12,0xc
   12a2c:	20595053          	0x20595053
   12a30:	0020                	addi	x8,x2,8
   12a32:	7d310107          	0x7d310107
   12a36:	0300                	addi	x8,x2,384
   12a38:	7901                	lui	x18,0xfffe0
   12a3a:	895d                	andi	x10,x10,23
   12a3c:	430c                	lw	x11,0(x14)
   12a3e:	d09f 454e 5343      	0x5343454ed09f
   12a44:	9d5e                	add	x26,x26,x23
   12a46:	43d4                	lw	x13,4(x15)
   12a48:	0000                	unimp
   12a4a:	3c0c                	fld	f11,56(x8)
   12a4c:	20595053          	0x20595053
   12a50:	0020                	addi	x8,x2,8
   12a52:	0111                	addi	x2,x2,4
   12a54:	280c                	fld	f11,16(x8)
   12a56:	0600                	addi	x8,x2,768
   12a58:	7901                	lui	x18,0xfffe0
   12a5a:	e3785cc7          	fmsub.d	f25,f16,f23,f28,unknown
   12a5e:	795533c7          	fmsub.s	f7,f10,f21,f15,rup
   12a62:	9d5e5343          	0x9d5e5343
   12a66:	48d4                	lw	x13,20(x9)
   12a68:	0000                	unimp
   12a6a:	8312                	mv	x6,x4
   12a6c:	20595053          	0x20595053
   12a70:	0020                	addi	x8,x2,8
   12a72:	0216                	slli	x4,x4,0x5
   12a74:	7212                	flw	f4,36(x2)
   12a76:	0200                	addi	x8,x2,256
   12a78:	7a01                	lui	x20,0xfffe0
   12a7a:	25c4                	fld	f9,136(x11)
   12a7c:	f7fb8d7b          	0xf7fb8d7b
   12a80:	454e                	lw	x10,208(x2)
   12a82:	4250                	lw	x12,4(x12)
   12a84:	9d5e                	add	x26,x26,x23
   12a86:	52d4                	lw	x13,36(x13)
   12a88:	0000                	unimp
   12a8a:	9316                	add	x6,x6,x5
   12a8c:	5345                	li	x6,-15
   12a8e:	2020                	fld	f8,64(x8)
   12a90:	0020                	addi	x8,x2,8
   12a92:	0104                	addi	x9,x2,128
   12a94:	a016                	fsd	f5,0(x2)
   12a96:	0a00                	addi	x8,x2,272
   12a98:	7b01                	lui	x22,0xfffe0
   12a9a:	8ba770d7          	0x8ba770d7
   12a9e:	7810                	flw	f12,48(x8)
   12aa0:	454e                	lw	x10,208(x2)
   12aa2:	9d5e4243          	0x9d5e4243
   12aa6:	5cd4                	lw	x13,60(x9)
   12aa8:	0000                	unimp
   12aaa:	50536d37          	lui	x26,0x50536
   12aae:	2059                	jal	12b34 <raw_data+0x16f4>
   12ab0:	0020                	addi	x8,x2,8
   12ab2:	011c                	addi	x15,x2,128
   12ab4:	08006e37          	lui	x28,0x8006
   12ab8:	7d01                	lui	x26,0xfffe0
   12aba:	32de                	fld	f5,496(x2)
   12abc:	51e1                	li	x3,-8
   12abe:	3d8e                	fld	f27,224(x2)
   12ac0:	454e                	lw	x10,208(x2)
   12ac2:	9d5e5343          	0x9d5e5343
   12ac6:	66d4                	flw	f13,12(x13)
   12ac8:	0000                	unimp
   12aca:	421d                	li	x4,7
   12acc:	20495457          	0x20495457
   12ad0:	0020                	addi	x8,x2,8
   12ad2:	011a                	slli	x2,x2,0x6
   12ad4:	431d                	li	x6,7
   12ad6:	0800                	addi	x8,x2,16
   12ad8:	7e01                	lui	x28,0xfffe0
   12ada:	38f0                	fld	f12,240(x9)
   12adc:	4519f613          	andi	x12,x19,1105
   12ae0:	454e                	lw	x10,208(x2)
   12ae2:	4250                	lw	x12,4(x12)
   12ae4:	9d5e                	add	x26,x26,x23
   12ae6:	70d4                	flw	f13,36(x9)
   12ae8:	0000                	unimp
   12aea:	9e39                	0x9e39
   12aec:	20595053          	0x20595053
   12af0:	0020                	addi	x8,x2,8
   12af2:	0205                	addi	x4,x4,1
   12af4:	9b39                	andi	x14,x14,-18
   12af6:	0800                	addi	x8,x2,16
   12af8:	8101                	c.srli64	x10
   12afa:	8f84                	0x8f84
   12afc:	812c                	0x812c
   12afe:	454e54a3          	0x454e54a3
   12b02:	9d5e4243          	0x9d5e4243
   12b06:	74d4                	flw	f13,44(x9)
   12b08:	0000                	unimp
   12b0a:	ce24                	sw	x9,88(x12)
   12b0c:	5345                	li	x6,-15
   12b0e:	2020                	fld	f8,64(x8)
   12b10:	0020                	addi	x8,x2,8
   12b12:	0215                	addi	x4,x4,5
   12b14:	d024                	sw	x9,96(x8)
   12b16:	0d00                	addi	x8,x2,656
   12b18:	8201                	c.srli64	x12
   12b1a:	57babfcb          	fnmsub.q	f31,f21,f27,f10,rup
   12b1e:	7489                	lui	x9,0xfffe2
   12b20:	454e                	lw	x10,208(x2)
   12b22:	9d5e5343          	0x9d5e5343
   12b26:	78d4                	flw	f13,52(x9)
   12b28:	0000                	unimp
   12b2a:	a015                	j	12b4e <raw_data+0x170e>
   12b2c:	20585053          	0x20585053
   12b30:	0020                	addi	x8,x2,8
   12b32:	021f ae15 0400      	0x400ae15021f
   12b38:	8401                	c.srai64	x8
   12b3a:	2041                	jal	12bba <raw_data+0x177a>
   12b3c:	97c1                	srai	x15,x15,0x30
   12b3e:	4bc8                	lw	x10,20(x15)
   12b40:	454e                	lw	x10,208(x2)
   12b42:	9d5e4243          	0x9d5e4243
   12b46:	7dd4                	flw	f13,60(x11)
   12b48:	0000                	unimp
   12b4a:	821e                	mv	x4,x7
   12b4c:	4141                	li	x2,16
   12b4e:	4c50                	lw	x12,28(x8)
   12b50:	0020                	addi	x8,x2,8
   12b52:	0104                	addi	x9,x2,128
   12b54:	861e                	mv	x12,x7
   12b56:	0c00                	addi	x8,x2,528
   12b58:	8701                	c.srai64	x14
   12b5a:	0a75                	addi	x20,x20,29
   12b5c:	f7811b93          	0xf7811b93
   12b60:	454e                	lw	x10,208(x2)
   12b62:	5350                	lw	x12,36(x14)
   12b64:	9d5e                	add	x26,x26,x23
   12b66:	80d4                	0x80d4
   12b68:	0000                	unimp
   12b6a:	0b18                	addi	x14,x2,400
   12b6c:	5345                	li	x6,-15
   12b6e:	2020                	fld	f8,64(x8)
   12b70:	0020                	addi	x8,x2,8
   12b72:	0209                	addi	x4,x4,2
   12b74:	0418                	addi	x14,x2,512
   12b76:	0800                	addi	x8,x2,16
   12b78:	8a01                	andi	x12,x12,0
   12b7a:	f6f8                	fsw	f14,108(x13)
   12b7c:	2518                	fld	f14,8(x10)
   12b7e:	8e71                	and	x12,x12,x12
   12b80:	454e                	lw	x10,208(x2)
   12b82:	9d5e4243          	0x9d5e4243
   12b86:	87d4                	0x87d4
   12b88:	0000                	unimp
   12b8a:	8714                	0x8714
   12b8c:	20495457          	0x20495457
   12b90:	0020                	addi	x8,x2,8
   12b92:	0120                	addi	x8,x2,136
   12b94:	7314                	flw	f13,32(x14)
   12b96:	0300                	addi	x8,x2,384
   12b98:	8d01                	sub	x10,x10,x8
   12b9a:	90c3925b          	0x90c3925b
   12b9e:	9fd0                	0x9fd0
   12ba0:	454e                	lw	x10,208(x2)
   12ba2:	9d5e4243          	0x9d5e4243
   12ba6:	91d4                	0x91d4
   12ba8:	0000                	unimp
   12baa:	aa1c                	fsd	f15,16(x12)
   12bac:	4141                	li	x2,16
   12bae:	4c50                	lw	x12,28(x8)
   12bb0:	0020                	addi	x8,x2,8
   12bb2:	0122                	slli	x2,x2,0x8
   12bb4:	bb1c                	fsd	f15,48(x14)
   12bb6:	0800                	addi	x8,x2,16
   12bb8:	8e01                	sub	x12,x12,x8
   12bba:	4752                	lw	x14,20(x2)
   12bbc:	0a24                	addi	x9,x2,280
   12bbe:	454ece57          	0x454ece57
   12bc2:	9d5e5343          	0x9d5e5343
   12bc6:	98d4                	0x98d4
   12bc8:	0000                	unimp
   12bca:	622a                	flw	f4,136(x2)
   12bcc:	4d59                	li	x26,22
   12bce:	2020                	fld	f8,64(x8)
   12bd0:	0020                	addi	x8,x2,8
   12bd2:	0208                	addi	x10,x2,256
   12bd4:	652a                	flw	f10,136(x2)
   12bd6:	0400                	addi	x8,x2,512
   12bd8:	9101                	srli	x10,x10,0x20
   12bda:	9308                	0x9308
   12bdc:	1824                	addi	x9,x2,56
   12bde:	feff                	0xfeff
   12be0:	454e                	lw	x10,208(x2)
   12be2:	9d5e4243          	0x9d5e4243
   12be6:	a2d4                	fsd	f13,128(x13)
   12be8:	0000                	unimp
   12bea:	a80d                	j	12c1c <raw_data+0x17dc>
   12bec:	20495457          	0x20495457
   12bf0:	0020                	addi	x8,x2,8
   12bf2:	021e                	slli	x4,x4,0x7
   12bf4:	b20d                	j	12516 <raw_data+0x10d6>
   12bf6:	0200                	addi	x8,x2,256
   12bf8:	9101                	srli	x10,x10,0x20
   12bfa:	1ded                	addi	x27,x27,-5
   12bfc:	f63a                	fsw	f14,44(x2)
   12bfe:	266a                	fld	f12,152(x2)
   12c00:	454e                	lw	x10,208(x2)
   12c02:	4250                	lw	x12,4(x12)
   12c04:	9d5e                	add	x26,x26,x23
   12c06:	abd4                	fsd	f13,144(x15)
   12c08:	0000                	unimp
   12c0a:	920a                	add	x4,x4,x2
   12c0c:	464e                	lw	x12,208(x2)
   12c0e:	584c                	lw	x11,52(x8)
   12c10:	0020                	addi	x8,x2,8
   12c12:	011d                	addi	x2,x2,7
   12c14:	990a                	add	x18,x18,x2
   12c16:	0d00                	addi	x8,x2,656
   12c18:	9301                	srli	x14,x14,0x20
   12c1a:	fd40                	fsw	f8,60(x10)
   12c1c:	5628                	lw	x10,104(x12)
   12c1e:	c37d                	beqz	x14,12d04 <raw_data+0x18c4>
   12c20:	454e                	lw	x10,208(x2)
   12c22:	4250                	lw	x12,4(x12)
   12c24:	9d5e                	add	x26,x26,x23
   12c26:	b4d4                	fsd	f13,168(x9)
   12c28:	0000                	unimp
   12c2a:	2d1e                	fld	f26,448(x2)
   12c2c:	20495457          	0x20495457
   12c30:	0020                	addi	x8,x2,8
   12c32:	1d1e0213          	addi	x4,x28,465 # fffe01d1 <__BSS_END__+0xfffca279>
   12c36:	0300                	addi	x8,x2,384
   12c38:	9401                	srai	x8,x8,0x20
   12c3a:	3074                	fld	f13,224(x8)
   12c3c:	480e                	lw	x16,192(x2)
   12c3e:	b4b2                	fsd	f12,104(x2)
   12c40:	454e                	lw	x10,208(x2)
   12c42:	9d5e4243          	0x9d5e4243
   12c46:	bad4                	fsd	f13,176(x13)
   12c48:	0000                	unimp
   12c4a:	5053d123          	0x5053d123
   12c4e:	2058                	fld	f14,128(x8)
   12c50:	0020                	addi	x8,x2,8
   12c52:	021f cb23 0500      	0x500cb23021f
   12c58:	9701                	srai	x14,x14,0x20
   12c5a:	a78e                	fsd	f3,456(x2)
   12c5c:	9b21                	andi	x14,x14,-24
   12c5e:	f2f9                	bnez	x13,12c24 <raw_data+0x17e4>
   12c60:	454e                	lw	x10,208(x2)
   12c62:	9d5e4243          	0x9d5e4243
   12c66:	c3d4                	sw	x13,4(x15)
   12c68:	0000                	unimp
   12c6a:	2830                	fld	f12,80(x8)
   12c6c:	4d59                	li	x26,22
   12c6e:	2020                	fld	f8,64(x8)
   12c70:	0020                	addi	x8,x2,8
   12c72:	011c                	addi	x15,x2,128
   12c74:	2a30                	fld	f12,80(x12)
   12c76:	0d00                	addi	x8,x2,656
   12c78:	9a01                	andi	x12,x12,-32
   12c7a:	00b1                	addi	x1,x1,12
   12c7c:	ff05                	bnez	x14,12bb4 <raw_data+0x1774>
   12c7e:	37c6                	fld	f15,112(x2)
   12c80:	454e                	lw	x10,208(x2)
   12c82:	9d5e4243          	0x9d5e4243
   12c86:	cad4                	sw	x13,20(x13)
   12c88:	0000                	unimp
   12c8a:	4d598017          	auipc	x0,0x4d598
   12c8e:	2020                	fld	f8,64(x8)
   12c90:	0020                	addi	x8,x2,8
   12c92:	0214                	addi	x13,x2,256
   12c94:	05009417          	auipc	x8,0x5009
   12c98:	9c01                	0x9c01
   12c9a:	be04de0f          	0xbe04de0f
   12c9e:	1fb6                	slli	x31,x31,0x2d
   12ca0:	454e                	lw	x10,208(x2)
   12ca2:	9d5e4243          	0x9d5e4243
   12ca6:	d4d4                	sw	x13,44(x9)
   12ca8:	0000                	unimp
   12caa:	cc1c                	sw	x15,24(x8)
   12cac:	2046                	fld	f0,80(x2)
   12cae:	2020                	fld	f8,64(x8)
   12cb0:	0020                	addi	x8,x2,8
   12cb2:	0210                	addi	x12,x2,256
   12cb4:	d11c                	sw	x15,32(x10)
   12cb6:	0300                	addi	x8,x2,384
   12cb8:	9e01                	0x9e01
   12cba:	dbae962f          	0xdbae962f
   12cbe:	0cec                	addi	x11,x2,604
   12cc0:	454e                	lw	x10,208(x2)
   12cc2:	9d5e5343          	0x9d5e5343
   12cc6:	dbd4                	sw	x13,52(x15)
   12cc8:	0000                	unimp
   12cca:	010c                	addi	x11,x2,128
   12ccc:	20595053          	0x20595053
   12cd0:	0020                	addi	x8,x2,8
   12cd2:	021c                	addi	x15,x2,256
   12cd4:	0a0c                	addi	x11,x2,272
   12cd6:	0200                	addi	x8,x2,256
   12cd8:	9e01                	0x9e01
   12cda:	b090                	fsd	f12,32(x9)
   12cdc:	4138fc67          	0x4138fc67
   12ce0:	454e                	lw	x10,208(x2)
   12ce2:	4250                	lw	x12,4(x12)
   12ce4:	9d5e                	add	x26,x26,x23
   12ce6:	e4d4                	fsw	f13,12(x9)
   12ce8:	0000                	unimp
   12cea:	ea0a                	fsw	f2,20(x2)
   12cec:	2046                	fld	f0,80(x2)
   12cee:	2020                	fld	f8,64(x8)
   12cf0:	0020                	addi	x8,x2,8
   12cf2:	e60a0213          	addi	x4,x20,-416 # fffdfe60 <__BSS_END__+0xfffc9f08>
   12cf6:	0800                	addi	x8,x2,16
   12cf8:	a001                	j	12cf8 <raw_data+0x18b8>
   12cfa:	2216                	fld	f4,320(x2)
   12cfc:	7aac                	flw	f11,112(x13)
   12cfe:	149c                	addi	x15,x2,608
   12d00:	454e                	lw	x10,208(x2)
   12d02:	9d5e4243          	0x9d5e4243
   12d06:	e7d4                	fsw	f13,12(x15)
   12d08:	0000                	unimp
   12d0a:	4141f92f          	0x4141f92f
   12d0e:	4c50                	lw	x12,28(x8)
   12d10:	0020                	addi	x8,x2,8
   12d12:	0106                	slli	x2,x2,0x1
   12d14:	0200f92f          	0x200f92f
   12d18:	a001                	j	12d18 <raw_data+0x18d8>
   12d1a:	7ae1                	lui	x21,0xffff8
   12d1c:	8348                	0x8348
   12d1e:	454e2cd3          	0x454e2cd3
   12d22:	4250                	lw	x12,4(x12)
   12d24:	9d5e                	add	x26,x26,x23
   12d26:	edd4                	fsw	f13,28(x11)
   12d28:	0000                	unimp
   12d2a:	db02                	sw	x0,180(x2)
   12d2c:	4d59                	li	x26,22
   12d2e:	2020                	fld	f8,64(x8)
   12d30:	0020                	addi	x8,x2,8
   12d32:	d302010f          	0xd302010f
   12d36:	0400                	addi	x8,x2,512
   12d38:	a101                	j	13138 <raw_data+0x1cf8>
   12d3a:	8a75                	andi	x12,x12,29
   12d3c:	3c1e                	fld	f24,480(x2)
   12d3e:	713a                	flw	f2,172(x2)
   12d40:	454e                	lw	x10,208(x2)
   12d42:	5350                	lw	x12,36(x14)
   12d44:	9d5e                	add	x26,x26,x23
   12d46:	f0d4                	fsw	f13,36(x9)
   12d48:	0000                	unimp
   12d4a:	54573b2f          	0x54573b2f
   12d4e:	2049                	jal	12dd0 <raw_data+0x1990>
   12d50:	0020                	addi	x8,x2,8
   12d52:	0205                	addi	x4,x4,1
   12d54:	0800292f          	amoswap.w	x18,x0,(x0)
   12d58:	a201                	j	12e58 <raw_data+0x1a18>
   12d5a:	58f5                	li	x17,-3
   12d5c:	f516                	fsw	f5,168(x2)
   12d5e:	8d7a                	mv	x26,x30
   12d60:	454e                	lw	x10,208(x2)
   12d62:	5350                	lw	x12,36(x14)
   12d64:	9d5e                	add	x26,x26,x23
   12d66:	f5d4                	fsw	f13,44(x11)
   12d68:	0000                	unimp
   12d6a:	ee08                	fsw	f10,24(x12)
   12d6c:	474f4f47          	fmsub.q	f30,f30,f20,f8,rmm
   12d70:	004c                	addi	x11,x2,4
   12d72:	f4080103          	lb	x2,-192(x16) # fffe7f40 <__BSS_END__+0xfffd1fe8>
   12d76:	0600                	addi	x8,x2,768
   12d78:	a401                	j	12f78 <raw_data+0x1b38>
   12d7a:	1538                	addi	x14,x2,680
   12d7c:	c719                	beqz	x14,12d8a <raw_data+0x194a>
   12d7e:	873d                	srai	x14,x14,0xf
   12d80:	454e                	lw	x10,208(x2)
   12d82:	4250                	lw	x12,4(x12)
   12d84:	9d5e                	add	x26,x26,x23
   12d86:	f9d4                	fsw	f13,52(x11)
   12d88:	0000                	unimp
   12d8a:	8e05                	sub	x12,x12,x9
   12d8c:	4d59                	li	x26,22
   12d8e:	2020                	fld	f8,64(x8)
   12d90:	0020                	addi	x8,x2,8
   12d92:	86050223          	sb	x0,-1948(x10) # fffdf864 <__BSS_END__+0xfffc990c>
   12d96:	0800                	addi	x8,x2,16
   12d98:	a501                	j	13398 <raw_data+0x1f58>
   12d9a:	e878                	fsw	f14,84(x8)
   12d9c:	8680                	0x8680
   12d9e:	558d                	li	x11,-29
   12da0:	454e                	lw	x10,208(x2)
   12da2:	9d5e4243          	0x9d5e4243
   12da6:	02d5                	addi	x5,x5,21
   12da8:	0000                	unimp
   12daa:	ec11                	bnez	x8,12dc6 <raw_data+0x1986>
   12dac:	464e                	lw	x12,208(x2)
   12dae:	584c                	lw	x11,52(x8)
   12db0:	0020                	addi	x8,x2,8
   12db2:	0206                	slli	x4,x4,0x1
   12db4:	de11                	beqz	x12,12cd0 <raw_data+0x1890>
   12db6:	0900                	addi	x8,x2,144
   12db8:	a501                	j	133b8 <raw_data+0x1f78>
   12dba:	d8b277e3          	bgeu	x4,x11,12b48 <raw_data+0x1708>
   12dbe:	454e1bb3          	0x454e1bb3
   12dc2:	9d5e4243          	0x9d5e4243
   12dc6:	07d5                	addi	x15,x15,21
   12dc8:	0000                	unimp
   12dca:	2d24                	fld	f9,88(x10)
   12dcc:	474f4f47          	fmsub.q	f30,f30,f20,f8,rmm
   12dd0:	004c                	addi	x11,x2,4
   12dd2:	2c240117          	auipc	x2,0x2c240
   12dd6:	0400                	addi	x8,x2,512
   12dd8:	a801                	j	12de8 <raw_data+0x19a8>
   12dda:	fa8d                	bnez	x13,12d0c <raw_data+0x18cc>
   12ddc:	6d2d                	lui	x26,0xb
   12dde:	bb31                	j	12afa <raw_data+0x16ba>
   12de0:	454e                	lw	x10,208(x2)
   12de2:	4250                	lw	x12,4(x12)
   12de4:	9d5e                	add	x26,x26,x23
   12de6:	0cd5                	addi	x25,x25,21
   12de8:	0000                	unimp
   12dea:	e82d                	bnez	x8,12e5c <raw_data+0x1a1c>
   12dec:	4d59                	li	x26,22
   12dee:	2020                	fld	f8,64(x8)
   12df0:	0020                	addi	x8,x2,8
   12df2:	0214                	addi	x13,x2,256
   12df4:	f02d                	bnez	x8,12d56 <raw_data+0x1916>
   12df6:	0d00                	addi	x8,x2,656
   12df8:	ab01                	j	13308 <raw_data+0x1ec8>
   12dfa:	dd7e                	sw	x31,184(x2)
   12dfc:	7d7e                	flw	f26,252(x2)
   12dfe:	2312                	fld	f6,256(x2)
   12e00:	454e                	lw	x10,208(x2)
   12e02:	5350                	lw	x12,36(x14)
   12e04:	9d5e                	add	x26,x26,x23
   12e06:	10d5                	addi	x1,x1,-11
   12e08:	0000                	unimp
   12e0a:	5457041b          	0x5457041b
   12e0e:	2049                	jal	12e90 <raw_data+0x1a50>
   12e10:	0020                	addi	x8,x2,8
   12e12:	021a                	slli	x4,x4,0x6
   12e14:	f11a                	fsw	f6,160(x2)
   12e16:	0900                	addi	x8,x2,144
   12e18:	ad01                	j	13428 <raw_data+0x1fe8>
   12e1a:	5db6                	lw	x27,108(x2)
   12e1c:	fd98ea23          	0xfd98ea23
   12e20:	454e                	lw	x10,208(x2)
   12e22:	9d5e4243          	0x9d5e4243
   12e26:	1cd5                	addi	x25,x25,-11
   12e28:	0000                	unimp
   12e2a:	df14                	sw	x13,56(x14)
   12e2c:	5345                	li	x6,-15
   12e2e:	2020                	fld	f8,64(x8)
   12e30:	0020                	addi	x8,x2,8
   12e32:	ec140213          	addi	x4,x8,-319 # 501bb55 <__BSS_END__+0x5005bfd>
   12e36:	0800                	addi	x8,x2,16
   12e38:	b001                	j	12638 <raw_data+0x11f8>
   12e3a:	c1c9                	beqz	x11,12ebc <raw_data+0x1a7c>
   12e3c:	79a0                	flw	f8,112(x11)
   12e3e:	d272                	sw	x28,36(x2)
   12e40:	454e                	lw	x10,208(x2)
   12e42:	9d5e4243          	0x9d5e4243
   12e46:	1fd5                	addi	x31,x31,-11
   12e48:	0000                	unimp
   12e4a:	464e0923          	sb	x4,1138(x28)
   12e4e:	584c                	lw	x11,52(x8)
   12e50:	0020                	addi	x8,x2,8
   12e52:	0109                	addi	x2,x2,2
   12e54:	0a000523          	sb	x0,170(x0) # aa <_start-0xffd6>
   12e58:	b201                	j	12758 <raw_data+0x1318>
   12e5a:	4474                	lw	x13,76(x8)
   12e5c:	92a1                	srli	x13,x13,0x28
   12e5e:	454e5677          	0x454e5677
   12e62:	5350                	lw	x12,36(x14)
   12e64:	9d5e                	add	x26,x26,x23
   12e66:	29d5                	jal	1335a <raw_data+0x1f1a>
   12e68:	0000                	unimp
   12e6a:	7602                	flw	f12,32(x2)
   12e6c:	20585053          	0x20585053
   12e70:	0020                	addi	x8,x2,8
   12e72:	020a                	slli	x4,x4,0x2
   12e74:	7202                	flw	f4,32(x2)
   12e76:	0700                	addi	x8,x2,896
   12e78:	b201                	j	12778 <raw_data+0x1338>
   12e7a:	a8e6                	fsd	f25,80(x2)
   12e7c:	e256                	fsw	f21,4(x2)
   12e7e:	2f82                	fld	f31,0(x2)
   12e80:	454e                	lw	x10,208(x2)
   12e82:	4250                	lw	x12,4(x12)
   12e84:	9d5e                	add	x26,x26,x23
   12e86:	33d5                	jal	12c6a <raw_data+0x182a>
   12e88:	0000                	unimp
   12e8a:	464efa0f          	0x464efa0f
   12e8e:	584c                	lw	x11,52(x8)
   12e90:	0020                	addi	x8,x2,8
   12e92:	021c                	addi	x15,x2,256
   12e94:	0700f20f          	0x700f20f
   12e98:	b501                	j	12c98 <raw_data+0x1858>
   12e9a:	01c4358b          	0x1c4358b
   12e9e:	ffe2                	fsw	f24,252(x2)
   12ea0:	454e                	lw	x10,208(x2)
   12ea2:	9d5e4243          	0x9d5e4243
   12ea6:	38d5                	jal	1279a <raw_data+0x135a>
   12ea8:	0000                	unimp
   12eaa:	4f479213          	0x4f479213
   12eae:	004c474f          	fnmadd.s	f14,f24,f4,f0,rmm
   12eb2:	0220                	addi	x8,x2,264
   12eb4:	04009113          	0x4009113
   12eb8:	b701                	j	12db8 <raw_data+0x1978>
   12eba:	613f3483          	0x613f3483
   12ebe:	2864                	fld	f9,208(x8)
   12ec0:	454e                	lw	x10,208(x2)
   12ec2:	4250                	lw	x12,4(x12)
   12ec4:	9d5e                	add	x26,x26,x23
   12ec6:	44d5                	li	x9,21
   12ec8:	0000                	unimp
   12eca:	b51f 5053 2059      	0x20595053b51f
   12ed0:	0020                	addi	x8,x2,8
   12ed2:	0206                	slli	x4,x4,0x1
   12ed4:	bb1f 0a00 bc01      	0xbc010a00bb1f
   12eda:	fe74                	fsw	f13,124(x12)
   12edc:	6094                	flw	f13,0(x9)
   12ede:	da7f                	0xda7f
   12ee0:	454e                	lw	x10,208(x2)
   12ee2:	5350                	lw	x12,36(x14)
   12ee4:	9d5e                	add	x26,x26,x23
   12ee6:	48d5                	li	x17,21
   12ee8:	0000                	unimp
   12eea:	bf00                	fsd	f8,56(x14)
   12eec:	4141                	li	x2,16
   12eee:	4c50                	lw	x12,28(x8)
   12ef0:	0020                	addi	x8,x2,8
   12ef2:	0118                	addi	x14,x2,128
   12ef4:	c800                	sw	x8,16(x8)
   12ef6:	0a00                	addi	x8,x2,272
   12ef8:	be01                	j	12a08 <raw_data+0x15c8>
   12efa:	aca4                	fsd	f9,88(x9)
   12efc:	ccd9                	beqz	x9,12f9a <raw_data+0x1b5a>
   12efe:	1145                	addi	x2,x2,-15
   12f00:	454e                	lw	x10,208(x2)
   12f02:	4250                	lw	x12,4(x12)
   12f04:	9d5e                	add	x26,x26,x23
   12f06:	4bd5                	li	x23,21
   12f08:	0000                	unimp
   12f0a:	b432                	fsd	f12,40(x2)
   12f0c:	5345                	li	x6,-15
   12f0e:	2020                	fld	f8,64(x8)
   12f10:	0020                	addi	x8,x2,8
   12f12:	b6320113          	addi	x2,x4,-1181 # fffdfb63 <__BSS_END__+0xfffc9c0b>
   12f16:	0500                	addi	x8,x2,640
   12f18:	c101                	beqz	x10,12f18 <raw_data+0x1ad8>
   12f1a:	4ffca707          	flw	f14,1279(x25)
   12f1e:	63f0                	flw	f12,68(x15)
   12f20:	454e                	lw	x10,208(x2)
   12f22:	9d5e4243          	0x9d5e4243
   12f26:	53d5                	li	x7,-11
   12f28:	0000                	unimp
   12f2a:	9c35                	0x9c35
   12f2c:	464e                	lw	x12,208(x2)
   12f2e:	584c                	lw	x11,52(x8)
   12f30:	0020                	addi	x8,x2,8
   12f32:	0111                	addi	x2,x2,4
   12f34:	a035                	j	12f60 <raw_data+0x1b20>
   12f36:	0d00                	addi	x8,x2,656
   12f38:	c101                	beqz	x10,12f38 <raw_data+0x1af8>
   12f3a:	c372                	sw	x28,132(x2)
   12f3c:	e9ad                	bnez	x11,12fae <raw_data+0x1b6e>
   12f3e:	dcd8                	sw	x14,60(x9)
   12f40:	454e                	lw	x10,208(x2)
   12f42:	9d5e5343          	0x9d5e5343
   12f46:	57d5                	li	x15,-11
   12f48:	0000                	unimp
   12f4a:	ab04                	fsd	f9,16(x14)
   12f4c:	464e                	lw	x12,208(x2)
   12f4e:	584c                	lw	x11,52(x8)
   12f50:	0020                	addi	x8,x2,8
   12f52:	0209                	addi	x4,x4,2
   12f54:	b904                	fsd	f9,48(x10)
   12f56:	0800                	addi	x8,x2,16
   12f58:	c201                	beqz	x12,12f58 <raw_data+0x1b18>
   12f5a:	e265                	bnez	x12,1303a <raw_data+0x1bfa>
   12f5c:	6bb19a3f 5350454e 	0x5350454e6bb19a3f
   12f64:	9d5e                	add	x26,x26,x23
   12f66:	61d5                	lui	x3,0x15
   12f68:	0000                	unimp
   12f6a:	c518                	sw	x14,8(x10)
   12f6c:	474f4f47          	fmsub.q	f30,f30,f20,f8,rmm
   12f70:	004c                	addi	x11,x2,4
   12f72:	b2180113          	addi	x2,x16,-1247
   12f76:	0300                	addi	x8,x2,384
   12f78:	c401                	beqz	x8,12f80 <raw_data+0x1b40>
   12f7a:	5448                	lw	x10,44(x8)
   12f7c:	0406                	slli	x8,x8,0x1
   12f7e:	454ea3f3          	csrrs	x7,0x454,x29
   12f82:	9d5e5343          	0x9d5e5343
   12f86:	69d5                	lui	x19,0x15
   12f88:	0000                	unimp
   12f8a:	4f475a0f          	0x4f475a0f
   12f8e:	004c474f          	fnmadd.s	f14,f24,f4,f0,rmm
   12f92:	690f011b          	0x690f011b
   12f96:	0800                	addi	x8,x2,16
   12f98:	c501                	beqz	x10,12fa0 <raw_data+0x1b60>
   12f9a:	0da8                	addi	x10,x2,728
   12f9c:	6149                	addi	x2,x2,144
   12f9e:	a8ce                	fsd	f19,80(x2)
   12fa0:	454e                	lw	x10,208(x2)
   12fa2:	4250                	lw	x12,4(x12)
   12fa4:	9d5e                	add	x26,x26,x23
   12fa6:	6cd5                	lui	x25,0x15
   12fa8:	0000                	unimp
   12faa:	6829                	lui	x16,0xa
   12fac:	4d59                	li	x26,22
   12fae:	2020                	fld	f8,64(x8)
   12fb0:	0020                	addi	x8,x2,8
   12fb2:	0206                	slli	x4,x4,0x1
   12fb4:	6d29                	lui	x26,0xa
   12fb6:	0b00                	addi	x8,x2,400
   12fb8:	c601                	beqz	x12,12fc0 <raw_data+0x1b80>
   12fba:	b052                	fsd	f20,32(x2)
   12fbc:	e4dd                	bnez	x9,1306a <raw_data+0x1c2a>
   12fbe:	1749                	addi	x14,x14,-14
   12fc0:	454e                	lw	x10,208(x2)
   12fc2:	9d5e5343          	0x9d5e5343
   12fc6:	6fd5                	lui	x31,0x15
   12fc8:	0000                	unimp
   12fca:	a818                	fsd	f14,16(x8)
   12fcc:	464e                	lw	x12,208(x2)
   12fce:	584c                	lw	x11,52(x8)
   12fd0:	0020                	addi	x8,x2,8
   12fd2:	0206                	slli	x4,x4,0x1
   12fd4:	af18                	fsd	f14,24(x14)
   12fd6:	0b00                	addi	x8,x2,400
   12fd8:	c601                	beqz	x12,12fe0 <raw_data+0x1ba0>
   12fda:	ee57d7cf          	fnmadd.q	f15,f15,f5,f29,unknown
   12fde:	cd40                	sw	x8,28(x10)
   12fe0:	454e                	lw	x10,208(x2)
   12fe2:	9d5e4243          	0x9d5e4243
   12fe6:	77d5                	lui	x15,0xffff5
   12fe8:	0000                	unimp
   12fea:	9f31                	0x9f31
   12fec:	20585053          	0x20585053
   12ff0:	0020                	addi	x8,x2,8
   12ff2:	0119                	addi	x2,x2,6
   12ff4:	9831                	andi	x8,x8,-20
   12ff6:	0a00                	addi	x8,x2,272
   12ff8:	c901                	beqz	x10,13008 <raw_data+0x1bc8>
   12ffa:	e97c                	fsw	f15,84(x10)
   12ffc:	5a28                	lw	x10,112(x12)
   12ffe:	bee0                	fsd	f8,248(x13)
   13000:	454e                	lw	x10,208(x2)
   13002:	9d5e4243          	0x9d5e4243
   13006:	81d5                	srli	x11,x11,0x15
   13008:	0000                	unimp
   1300a:	8434                	0x8434
   1300c:	20595053          	0x20595053
   13010:	0020                	addi	x8,x2,8
   13012:	0206                	slli	x4,x4,0x1
   13014:	9034                	0x9034
   13016:	0300                	addi	x8,x2,384
   13018:	cc01                	beqz	x8,13030 <raw_data+0x1bf0>
   1301a:	d604850b          	0xd604850b
   1301e:	454e9317          	auipc	x6,0x454e9
   13022:	4250                	lw	x12,4(x12)
   13024:	9d5e                	add	x26,x26,x23
   13026:	8bd5                	andi	x15,x15,21
   13028:	0000                	unimp
   1302a:	464e8923          	sb	x4,1138(x29) # 454ee472 <__BSS_END__+0x454d851a>
   1302e:	584c                	lw	x11,52(x8)
   13030:	0020                	addi	x8,x2,8
   13032:	0115                	addi	x2,x2,5
   13034:	0a008323          	sb	x0,166(x1) # 120a6 <raw_data+0xc66>
   13038:	cd01                	beqz	x10,13050 <raw_data+0x1c10>
   1303a:	a8c2                	fsd	f16,80(x2)
   1303c:	3515                	jal	12e60 <raw_data+0x1a20>
   1303e:	709e                	flw	f1,228(x2)
   13040:	454e                	lw	x10,208(x2)
   13042:	9d5e5343          	0x9d5e5343
   13046:	92d5                	srli	x13,x13,0x35
   13048:	0000                	unimp
   1304a:	5053e603          	0x5053e603
   1304e:	2059                	jal	130d4 <raw_data+0x1c94>
   13050:	0020                	addi	x8,x2,8
   13052:	0106                	slli	x2,x2,0x1
   13054:	0700f303          	0x700f303
   13058:	cf01                	beqz	x14,13070 <raw_data+0x1c30>
   1305a:	384d                	jal	1290c <raw_data+0x14cc>
   1305c:	16dc                	addi	x15,x2,868
   1305e:	5079                	c.li	x0,-2
   13060:	454e                	lw	x10,208(x2)
   13062:	5350                	lw	x12,36(x14)
   13064:	9d5e                	add	x26,x26,x23
   13066:	9fd5                	0x9fd5
   13068:	0000                	unimp
   1306a:	a92d                	j	134a4 <raw_data+0x2064>
   1306c:	4d59                	li	x26,22
   1306e:	2020                	fld	f8,64(x8)
   13070:	0020                	addi	x8,x2,8
   13072:	021d                	addi	x4,x4,7
   13074:	a02d                	j	1309e <raw_data+0x1c5e>
   13076:	0a00                	addi	x8,x2,272
   13078:	d401                	beqz	x8,12f80 <raw_data+0x1b40>
   1307a:	0eff                	0xeff
   1307c:	1d9e                	slli	x27,x27,0x27
   1307e:	454e2fe3          	0x454e2fe3
   13082:	5350                	lw	x12,36(x14)
   13084:	9d5e                	add	x26,x26,x23
   13086:	a6d5                	j	1346a <raw_data+0x202a>
   13088:	0000                	unimp
   1308a:	c901                	beqz	x10,1309a <raw_data+0x1c5a>
   1308c:	20585053          	0x20585053
   13090:	0020                	addi	x8,x2,8
   13092:	011d                	addi	x2,x2,7
   13094:	cc01                	beqz	x8,130ac <raw_data+0x1c6c>
   13096:	0900                	addi	x8,x2,144
   13098:	d701                	beqz	x14,12fa0 <raw_data+0x1b60>
   1309a:	0e2a                	slli	x28,x28,0xa
   1309c:	2ca4                	fld	f9,88(x9)
   1309e:	6fee                	flw	f31,216(x2)
   130a0:	454e                	lw	x10,208(x2)
   130a2:	9d5e5343          	0x9d5e5343
   130a6:	add5                	j	1379a <raw_data+0x235a>
   130a8:	0000                	unimp
   130aa:	5053070b          	0x5053070b
   130ae:	2058                	fld	f14,128(x8)
   130b0:	0020                	addi	x8,x2,8
   130b2:	0112                	slli	x2,x2,0x4
   130b4:	02001a0b          	0x2001a0b
   130b8:	d901                	beqz	x10,12fc8 <raw_data+0x1b88>
   130ba:	91f3bfbb          	0x91f3bfbb
   130be:	db1c                	sw	x15,48(x14)
   130c0:	684d                	lui	x16,0x13
   130c2:	4250                	lw	x12,4(x12)
   130c4:	9d5e                	add	x26,x26,x23
   130c6:	b6d5                	j	12caa <raw_data+0x186a>
   130c8:	0000                	unimp
   130ca:	8404                	0x8404
   130cc:	464e                	lw	x12,208(x2)
   130ce:	584c                	lw	x11,52(x8)
   130d0:	0020                	addi	x8,x2,8
   130d2:	0219                	addi	x4,x4,6
   130d4:	7d04                	flw	f9,56(x10)
   130d6:	0b00                	addi	x8,x2,400
   130d8:	de01                	beqz	x12,12ff0 <raw_data+0x1bb0>
   130da:	49b9                	li	x19,14
   130dc:	c1a5                	beqz	x11,1313c <raw_data+0x1cfc>
   130de:	454e4b4f          	0x454e4b4f
   130e2:	9d5e4243          	0x9d5e4243
   130e6:	bbd5                	j	12eda <raw_data+0x1a9a>
   130e8:	0000                	unimp
   130ea:	0205                	addi	x4,x4,1
   130ec:	4141                	li	x2,16
   130ee:	4c50                	lw	x12,28(x8)
   130f0:	0020                	addi	x8,x2,8
   130f2:	0212                	slli	x4,x4,0x4
   130f4:	0a05                	addi	x20,x20,1
   130f6:	0b00                	addi	x8,x2,400
   130f8:	e001                	bnez	x8,130f8 <raw_data+0x1cb8>
   130fa:	eb93146f          	jal	x8,fff44fb2 <__BSS_END__+0xfff2f05a>
   130fe:	6a9c                	flw	f15,16(x13)
   13100:	454e                	lw	x10,208(x2)
   13102:	9d5e4243          	0x9d5e4243
   13106:	c0d5                	beqz	x9,131aa <raw_data+0x1d6a>
   13108:	0000                	unimp
   1310a:	7428                	flw	f10,104(x8)
   1310c:	20585053          	0x20585053
   13110:	0020                	addi	x8,x2,8
   13112:	8028010f          	0x8028010f
   13116:	0900                	addi	x8,x2,144
   13118:	e201                	bnez	x12,13118 <raw_data+0x1cd8>
   1311a:	0e1d94d3          	fsub.q	f9,f27,f1,rtz
   1311e:	cce0                	sw	x8,92(x9)
   13120:	454e                	lw	x10,208(x2)
   13122:	4250                	lw	x12,4(x12)
   13124:	9d5e                	add	x26,x26,x23
   13126:	c9d5                	beqz	x11,131da <raw_data+0x1d9a>
   13128:	0000                	unimp
   1312a:	5053f12f          	0x5053f12f
   1312e:	2058                	fld	f14,128(x8)
   13130:	0020                	addi	x8,x2,8
   13132:	fc2f020f          	0xfc2f020f
   13136:	0d00                	addi	x8,x2,656
   13138:	e601                	bnez	x12,13140 <raw_data+0x1d00>
   1313a:	6b4d                	lui	x22,0x13
   1313c:	7c5a                	flw	f24,180(x2)
   1313e:	454e37b3          	0x454e37b3
   13142:	9d5e4243          	0x9d5e4243
   13146:	d4d5                	beqz	x9,130f2 <raw_data+0x1cb2>
   13148:	0000                	unimp
   1314a:	d51f 5053 2059      	0x20595053d51f
   13150:	0020                	addi	x8,x2,8
   13152:	0118                	addi	x14,x2,128
   13154:	dd1f 0600 ea01      	0xea010600dd1f
   1315a:	8b185cb3          	0x8b185cb3
   1315e:	fa5c                	fsw	f15,52(x12)
   13160:	454e                	lw	x10,208(x2)
   13162:	5350                	lw	x12,36(x14)
   13164:	9d5e                	add	x26,x26,x23
   13166:	d7d5                	beqz	x15,13112 <raw_data+0x1cd2>
   13168:	0000                	unimp
   1316a:	fe14                	fsw	f13,56(x12)
   1316c:	464e                	lw	x12,208(x2)
   1316e:	584c                	lw	x11,52(x8)
   13170:	0020                	addi	x8,x2,8
   13172:	ff140203          	lb	x4,-15(x8)
   13176:	0200                	addi	x8,x2,256
   13178:	ec01                	bnez	x8,13190 <raw_data+0x1d50>
   1317a:	4792                	lw	x15,4(x2)
   1317c:	b56c                	fsd	f11,232(x10)
   1317e:	454eb233          	0x454eb233
   13182:	9d5e5343          	0x9d5e5343
   13186:	ddd5                	beqz	x11,13142 <raw_data+0x1d02>
   13188:	0000                	unimp
   1318a:	4f47de17          	auipc	x28,0x4f47d
   1318e:	004c474f          	fnmadd.s	f14,f24,f4,f0,rmm
   13192:	d417021b          	0xd417021b
   13196:	0800                	addi	x8,x2,16
   13198:	ef01                	bnez	x14,131b0 <raw_data+0x1d70>
   1319a:	cd22                	sw	x8,152(x2)
   1319c:	62f2                	flw	f5,28(x2)
   1319e:	2580                	fld	f8,8(x11)
   131a0:	454e                	lw	x10,208(x2)
   131a2:	5350                	lw	x12,36(x14)
   131a4:	9d5e                	add	x26,x26,x23
   131a6:	e6d5                	bnez	x13,13252 <raw_data+0x1e12>
   131a8:	0000                	unimp
   131aa:	a724                	fsd	f9,72(x14)
   131ac:	464e                	lw	x12,208(x2)
   131ae:	584c                	lw	x11,52(x8)
   131b0:	0020                	addi	x8,x2,8
   131b2:	0210                	addi	x12,x2,256
   131b4:	a224                	fsd	f9,64(x12)
   131b6:	0300                	addi	x8,x2,384
   131b8:	ef01                	bnez	x14,131d0 <raw_data+0x1d90>
   131ba:	33b677c3          	fmadd.d	f15,f12,f27,f6
   131be:	ff88                	fsw	f10,56(x15)
   131c0:	454e                	lw	x10,208(x2)
   131c2:	4250                	lw	x12,4(x12)
   131c4:	9d5e                	add	x26,x26,x23
   131c6:	e9d5                	bnez	x11,1327a <raw_data+0x1e3a>
   131c8:	0000                	unimp
   131ca:	4131                	li	x2,12
   131cc:	474f4f47          	fmsub.q	f30,f30,f20,f8,rmm
   131d0:	004c                	addi	x11,x2,4
   131d2:	020e                	slli	x4,x4,0x3
   131d4:	4131                	li	x2,12
   131d6:	0700                	addi	x8,x2,896
   131d8:	f201                	bnez	x12,130d8 <raw_data+0x1c98>
   131da:	b996                	fsd	f5,240(x2)
   131dc:	f08c                	fsw	f11,32(x9)
   131de:	5aad                	li	x21,-21
   131e0:	454e                	lw	x10,208(x2)
   131e2:	4250                	lw	x12,4(x12)
   131e4:	9d5e                	add	x26,x26,x23
   131e6:	f1d5                	bnez	x11,1318a <raw_data+0x1d4a>
   131e8:	0000                	unimp
   131ea:	b811                	j	129fe <raw_data+0x15be>
   131ec:	474f4f47          	fmsub.q	f30,f30,f20,f8,rmm
   131f0:	004c                	addi	x11,x2,4
   131f2:	0219                	addi	x4,x4,6
   131f4:	bf11                	j	13108 <raw_data+0x1cc8>
   131f6:	0a00                	addi	x8,x2,272
   131f8:	f501                	bnez	x10,13100 <raw_data+0x1cc0>
   131fa:	3930                	fld	f12,112(x10)
   131fc:	b4dc                	fsd	f15,168(x9)
   131fe:	ce04                	sw	x9,24(x12)
   13200:	454e                	lw	x10,208(x2)
   13202:	4250                	lw	x12,4(x12)
   13204:	9d5e                	add	x26,x26,x23
   13206:	fad5                	bnez	x13,131ba <raw_data+0x1d7a>
   13208:	0000                	unimp
   1320a:	2046320f          	0x2046320f
   1320e:	2020                	fld	f8,64(x8)
   13210:	0020                	addi	x8,x2,8
   13212:	0109                	addi	x2,x2,2
   13214:	06001f0f          	0x6001f0f
   13218:	f701                	bnez	x14,13120 <raw_data+0x1ce0>
   1321a:	f74a2d8f          	0xf74a2d8f
   1321e:	5da0                	lw	x8,120(x11)
   13220:	454e                	lw	x10,208(x2)
   13222:	9d5e4243          	0x9d5e4243
   13226:	04d6                	slli	x9,x9,0x15
   13228:	0000                	unimp
   1322a:	ba16                	fsd	f5,304(x2)
   1322c:	474f4f47          	fmsub.q	f30,f30,f20,f8,rmm
   13230:	004c                	addi	x11,x2,4
   13232:	011e                	slli	x2,x2,0x7
   13234:	bc16                	fsd	f5,56(x2)
   13236:	0a00                	addi	x8,x2,272
   13238:	f901                	bnez	x10,13148 <raw_data+0x1d08>
   1323a:	0b32                	slli	x22,x22,0xc
   1323c:	3e76                	fld	f28,376(x2)
   1323e:	a93c                	fsd	f15,80(x10)
   13240:	454e                	lw	x10,208(x2)
   13242:	9d5e4243          	0x9d5e4243
   13246:	0bd6                	slli	x23,x23,0x15
   13248:	0000                	unimp
   1324a:	8a31                	andi	x12,x12,12
   1324c:	2046                	fld	f0,80(x2)
   1324e:	2020                	fld	f8,64(x8)
   13250:	0020                	addi	x8,x2,8
   13252:	011f 8a31 0d00      	0xd008a31011f
   13258:	f901                	bnez	x10,13168 <raw_data+0x1d28>
   1325a:	32c9                	jal	12c1c <raw_data+0x17dc>
   1325c:	58e9                	li	x17,-6
   1325e:	454e8347          	0x454e8347
   13262:	4250                	lw	x12,4(x12)
   13264:	9d5e                	add	x26,x26,x23
   13266:	10d6                	slli	x1,x1,0x35
   13268:	0000                	unimp
   1326a:	be25                	j	12da2 <raw_data+0x1962>
   1326c:	464e                	lw	x12,208(x2)
   1326e:	584c                	lw	x11,52(x8)
   13270:	0020                	addi	x8,x2,8
   13272:	010c                	addi	x11,x2,128
   13274:	c325                	beqz	x14,132d4 <raw_data+0x1e94>
   13276:	0900                	addi	x8,x2,144
   13278:	fc01                	bnez	x8,13190 <raw_data+0x1d50>
   1327a:	9705                	srai	x14,x14,0x21
   1327c:	460e                	lw	x12,192(x2)
   1327e:	454e65cf          	0x454e65cf
   13282:	9d5e5343          	0x9d5e5343
   13286:	19d6                	slli	x19,x19,0x35
   13288:	0000                	unimp
   1328a:	d936                	sw	x13,176(x2)
   1328c:	20595053          	0x20595053
   13290:	0020                	addi	x8,x2,8
   13292:	d536020b          	0xd536020b
   13296:	0200                	addi	x8,x2,256
   13298:	fd01                	bnez	x10,131b0 <raw_data+0x1d70>
   1329a:	9a4c                	0x9a4c
   1329c:	c2a0                	sw	x8,64(x13)
   1329e:	1c98                	addi	x14,x2,624
   132a0:	454e                	lw	x10,208(x2)
   132a2:	5350                	lw	x12,36(x14)
   132a4:	9d5e                	add	x26,x26,x23
   132a6:	1dd6                	slli	x27,x27,0x35
   132a8:	0000                	unimp
   132aa:	2b12                	fld	f22,256(x2)
   132ac:	20595053          	0x20595053
   132b0:	0020                	addi	x8,x2,8
   132b2:	0206                	slli	x4,x4,0x1
   132b4:	3412                	fld	f8,288(x2)
   132b6:	0200                	addi	x8,x2,256
   132b8:	ff01                	bnez	x14,131d0 <raw_data+0x1d90>
   132ba:	4b8c                	lw	x11,16(x15)
   132bc:	a35d                	j	13862 <raw_data+0x2422>
   132be:	7bb5                	lui	x23,0xfffed
   132c0:	454e                	lw	x10,208(x2)
   132c2:	9d5e4243          	0x9d5e4243
   132c6:	21d6                	fld	f3,336(x2)
   132c8:	0000                	unimp
   132ca:	b129                	j	12ed4 <raw_data+0x1a94>
   132cc:	474f4f47          	fmsub.q	f30,f30,f20,f8,rmm
   132d0:	004c                	addi	x11,x2,4
   132d2:	a629010f          	0xa629010f
   132d6:	0600                	addi	x8,x2,768
   132d8:	0202                	c.slli64	x4
   132da:	8a5a                	mv	x20,x22
   132dc:	f076                	fsw	f29,32(x2)
   132de:	4e25                	li	x28,9
   132e0:	454e                	lw	x10,208(x2)
   132e2:	9d5e5343          	0x9d5e5343
   132e6:	2bd6                	fld	f23,336(x2)
   132e8:	0000                	unimp
   132ea:	402a                	0x402a
   132ec:	474f4f47          	fmsub.q	f30,f30,f20,f8,rmm
   132f0:	004c                	addi	x11,x2,4
   132f2:	011c                	addi	x15,x2,128
   132f4:	3e2a                	fld	f28,168(x2)
   132f6:	0300                	addi	x8,x2,384
   132f8:	0502                	c.slli64	x10
   132fa:	ec6a                	fsw	f26,24(x2)
   132fc:	2acc                	fld	f11,144(x13)
   132fe:	454e6c4f          	0x454e6c4f
   13302:	5350                	lw	x12,36(x14)
   13304:	9d5e                	add	x26,x26,x23
   13306:	34d6                	fld	f9,368(x2)
   13308:	0000                	unimp
   1330a:	420a                	lw	x4,128(x2)
   1330c:	4141                	li	x2,16
   1330e:	4c50                	lw	x12,28(x8)
   13310:	0020                	addi	x8,x2,8
   13312:	0110                	addi	x12,x2,128
   13314:	310a                	fld	f2,160(x2)
   13316:	0800                	addi	x8,x2,16
   13318:	0602                	c.slli64	x12
   1331a:	1ac8                	addi	x10,x2,372
   1331c:	96be                	add	x13,x13,x15
   1331e:	587f                	0x587f
   13320:	454e                	lw	x10,208(x2)
   13322:	4250                	lw	x12,4(x12)
   13324:	9d5e                	add	x26,x26,x23
   13326:	42d6                	lw	x5,84(x2)
   13328:	0000                	unimp
   1332a:	464ec017          	auipc	x0,0x464ec
   1332e:	584c                	lw	x11,52(x8)
   13330:	0020                	addi	x8,x2,8
   13332:	011a                	slli	x2,x2,0x6
   13334:	0600c417          	auipc	x8,0x600c
   13338:	0902                	c.slli64	x18
   1333a:	e759                	bnez	x14,133c8 <raw_data+0x1f88>
   1333c:	99d0                	0x99d0
   1333e:	1de6                	slli	x27,x27,0x39
   13340:	454e                	lw	x10,208(x2)
   13342:	9d5e4243          	0x9d5e4243
   13346:	46d6                	lw	x13,84(x2)
   13348:	0000                	unimp
   1334a:	4f47170b          	0x4f47170b
   1334e:	004c474f          	fnmadd.s	f14,f24,f4,f0,rmm
   13352:	0119                	addi	x2,x2,6
   13354:	0900090b          	0x900090b
   13358:	0902                	c.slli64	x18
   1335a:	a0d0                	fsd	f12,128(x9)
   1335c:	e3a27477          	0xe3a27477
   13360:	454e                	lw	x10,208(x2)
   13362:	4250                	lw	x12,4(x12)
   13364:	9d5e                	add	x26,x26,x23
   13366:	49d6                	lw	x19,84(x2)
   13368:	0000                	unimp
   1336a:	0429                	addi	x8,x8,10
   1336c:	4141                	li	x2,16
   1336e:	4c50                	lw	x12,28(x8)
   13370:	0020                	addi	x8,x2,8
   13372:	021a                	slli	x4,x4,0x6
   13374:	1629                	addi	x12,x12,-22
   13376:	0900                	addi	x8,x2,144
   13378:	0c02                	c.slli64	x24
   1337a:	c888                	sw	x10,16(x9)
   1337c:	7291                	lui	x5,0xfffe4
   1337e:	9114                	0x9114
   13380:	454e                	lw	x10,208(x2)
   13382:	4250                	lw	x12,4(x12)
   13384:	9d5e                	add	x26,x26,x23
   13386:	51d6                	lw	x3,116(x2)
   13388:	0000                	unimp
   1338a:	41416f23          	0x41416f23
   1338e:	4c50                	lw	x12,28(x8)
   13390:	0020                	addi	x8,x2,8
   13392:	0212                	slli	x4,x4,0x4
   13394:	08006523          	0x8006523
   13398:	0f02                	c.slli64	x30
   1339a:	9c15                	0x9c15
   1339c:	c535                	beqz	x10,13408 <raw_data+0x1fc8>
   1339e:	454e0b5b          	0x454e0b5b
   133a2:	4250                	lw	x12,4(x12)
   133a4:	9d5e                	add	x26,x26,x23
   133a6:	5bd6                	lw	x23,116(x2)
   133a8:	0000                	unimp
   133aa:	c035                	beqz	x8,1340e <raw_data+0x1fce>
   133ac:	474f4f47          	fmsub.q	f30,f30,f20,f8,rmm
   133b0:	004c                	addi	x11,x2,4
   133b2:	0220                	addi	x8,x2,264
   133b4:	bd35                	j	131f0 <raw_data+0x1db0>
   133b6:	0a00                	addi	x8,x2,272
   133b8:	1002                	c.slli	x0,0x20
   133ba:	b9a1                	j	13012 <raw_data+0x1bd2>
   133bc:	c3da                	sw	x22,196(x2)
   133be:	110c                	addi	x11,x2,160
   133c0:	454e                	lw	x10,208(x2)
   133c2:	4250                	lw	x12,4(x12)
   133c4:	9d5e                	add	x26,x26,x23
   133c6:	62d6                	flw	f5,84(x2)
   133c8:	0000                	unimp
   133ca:	7b00                	flw	f8,48(x14)
   133cc:	20595053          	0x20595053
   133d0:	0020                	addi	x8,x2,8
   133d2:	7d000223          	sb	x16,1988(x0) # 7c4 <_start-0xf8bc>
   133d6:	0400                	addi	x8,x2,512
   133d8:	1402                	slli	x8,x8,0x20
   133da:	6719                	lui	x14,0x6
   133dc:	735e                	flw	f6,244(x2)
   133de:	411e                	lw	x2,196(x2)
   133e0:	454e                	lw	x10,208(x2)
   133e2:	5350                	lw	x12,36(x14)
   133e4:	9d5e                	add	x26,x26,x23
   133e6:	66d6                	flw	f13,84(x2)
   133e8:	0000                	unimp
   133ea:	ab02                	fsd	f0,400(x2)
   133ec:	20495457          	0x20495457
   133f0:	0020                	addi	x8,x2,8
   133f2:	0211                	addi	x4,x4,4
   133f4:	a702                	fsd	f0,392(x2)
   133f6:	0600                	addi	x8,x2,768
   133f8:	1402                	slli	x8,x8,0x20
   133fa:	8578                	0x8578
   133fc:	6db1                	lui	x27,0xc
   133fe:	f9cd                	bnez	x11,133b0 <raw_data+0x1f70>
   13400:	454e                	lw	x10,208(x2)
   13402:	9d5e5343          	0x9d5e5343
   13406:	6bd6                	flw	f23,84(x2)
   13408:	0000                	unimp
   1340a:	5053a833          	0x5053a833
   1340e:	2058                	fld	f14,128(x8)
   13410:	0020                	addi	x8,x2,8
   13412:	0106                	slli	x2,x2,0x1
   13414:	0600ab33          	0x600ab33
   13418:	1702                	slli	x14,x14,0x20
   1341a:	72e5                	lui	x5,0xffff9
   1341c:	a192                	fsd	f4,192(x2)
   1341e:	db6a                	sw	x26,180(x2)
   13420:	454e                	lw	x10,208(x2)
   13422:	5350                	lw	x12,36(x14)
   13424:	9d5e                	add	x26,x26,x23
   13426:	74d6                	flw	f9,116(x2)
   13428:	0000                	unimp
   1342a:	5053c213          	xori	x4,x7,1285
   1342e:	2058                	fld	f14,128(x8)
   13430:	0020                	addi	x8,x2,8
   13432:	0211                	addi	x4,x4,4
   13434:	0d00ca13          	xori	x20,x1,208
   13438:	1802                	slli	x16,x16,0x20
   1343a:	8b49                	andi	x14,x14,18
   1343c:	b4cc                	fsd	f11,168(x9)
   1343e:	21a8                	fld	f10,64(x11)
   13440:	454e                	lw	x10,208(x2)
   13442:	4250                	lw	x12,4(x12)
   13444:	9d5e                	add	x26,x26,x23
   13446:	79d6                	flw	f19,116(x2)
   13448:	0000                	unimp
   1344a:	6420                	flw	f8,72(x8)
   1344c:	4d59                	li	x26,22
   1344e:	2020                	fld	f8,64(x8)
   13450:	0020                	addi	x8,x2,8
   13452:	5f200107          	0x5f200107
   13456:	0a00                	addi	x8,x2,272
   13458:	1a02                	slli	x20,x20,0x20
   1345a:	2476                	fld	f8,344(x2)
   1345c:	1fd6                	slli	x31,x31,0x35
   1345e:	4040                	lw	x8,4(x8)
   13460:	454e                	lw	x10,208(x2)
   13462:	9d5e4243          	0x9d5e4243
   13466:	7cd6                	flw	f25,116(x2)
   13468:	0000                	unimp
   1346a:	c30e                	sw	x3,132(x2)
   1346c:	474f4f47          	fmsub.q	f30,f30,f20,f8,rmm
   13470:	004c                	addi	x11,x2,4
   13472:	0220                	addi	x8,x2,264
   13474:	d30e                	sw	x3,164(x2)
   13476:	0a00                	addi	x8,x2,272
   13478:	1b02                	slli	x22,x22,0x20
   1347a:	0fee                	slli	x31,x31,0x1b
   1347c:	a3b4d613          	0xa3b4d613
   13480:	454e                	lw	x10,208(x2)
   13482:	9d5e5343          	0x9d5e5343
   13486:	85d6                	mv	x11,x21
   13488:	0000                	unimp
   1348a:	411f 4141 4c50      	0x4c504141411f
   13490:	0020                	addi	x8,x2,8
   13492:	441f0207          	0x441f0207
   13496:	0500                	addi	x8,x2,640
   13498:	1d02                	slli	x26,x26,0x20
   1349a:	b686                	fsd	f1,360(x2)
   1349c:	407a                	0x407a
   1349e:	f91a                	fsw	f6,176(x2)
   134a0:	454e                	lw	x10,208(x2)
   134a2:	4250                	lw	x12,4(x12)
   134a4:	9d5e                	add	x26,x26,x23
   134a6:	8cd6                	mv	x25,x21
   134a8:	0000                	unimp
   134aa:	3c18                	fld	f14,56(x8)
   134ac:	4d59                	li	x26,22
   134ae:	2020                	fld	f8,64(x8)
   134b0:	0020                	addi	x8,x2,8
   134b2:	2d18020b          	0x2d18020b
   134b6:	0200                	addi	x8,x2,256
   134b8:	1f02                	slli	x30,x30,0x20
   134ba:	2278                	fld	f14,192(x12)
   134bc:	0c18                	addi	x14,x2,528
   134be:	7c50                	flw	f12,60(x8)
   134c0:	454e                	lw	x10,208(x2)
   134c2:	9d5e5343          	0x9d5e5343
   134c6:	94d6                	add	x9,x9,x21
   134c8:	0000                	unimp
   134ca:	4d596013          	ori	x0,x18,1237
   134ce:	2020                	fld	f8,64(x8)
   134d0:	0020                	addi	x8,x2,8
   134d2:	0121                	addi	x2,x2,8
   134d4:	0b006713          	ori	x14,x0,176
   134d8:	2002                	fld	f0,0(x2)
   134da:	da5c                	sw	x15,52(x12)
   134dc:	d22e                	sw	x11,36(x2)
   134de:	1160                	addi	x8,x2,172
   134e0:	454e                	lw	x10,208(x2)
   134e2:	9d5e4243          	0x9d5e4243
   134e6:	9ed6                	add	x29,x29,x21
   134e8:	0000                	unimp
   134ea:	0109                	addi	x2,x2,2
   134ec:	20585053          	0x20585053
   134f0:	0020                	addi	x8,x2,8
   134f2:	1109021b          	0x1109021b
   134f6:	0500                	addi	x8,x2,640
   134f8:	2102                	fld	f2,0(x2)
   134fa:	51a9                	li	x3,-22
   134fc:	f4c0                	fsw	f8,44(x9)
   134fe:	cab0                	sw	x12,80(x13)
   13500:	454e                	lw	x10,208(x2)
   13502:	4250                	lw	x12,4(x12)
   13504:	9d5e                	add	x26,x26,x23
   13506:	a7d6                	fsd	f21,456(x2)
   13508:	0000                	unimp
   1350a:	bc0c                	fsd	f11,56(x8)
   1350c:	2046                	fld	f0,80(x2)
   1350e:	2020                	fld	f8,64(x8)
   13510:	0020                	addi	x8,x2,8
   13512:	0106                	slli	x2,x2,0x1
   13514:	b90c                	fsd	f11,48(x10)
   13516:	0b00                	addi	x8,x2,400
   13518:	2402                	fld	f8,0(x2)
   1351a:	93ca                	add	x7,x7,x18
   1351c:	9152                	add	x2,x2,x20
   1351e:	454e3a8f          	0x454e3a8f
   13522:	5350                	lw	x12,36(x14)
   13524:	9d5e                	add	x26,x26,x23
   13526:	acd6                	fsd	f21,88(x2)
   13528:	0000                	unimp
   1352a:	463a                	lw	x12,140(x2)
   1352c:	474f4f47          	fmsub.q	f30,f30,f20,f8,rmm
   13530:	004c                	addi	x11,x2,4
   13532:	0220                	addi	x8,x2,264
   13534:	463a                	lw	x12,140(x2)
   13536:	0200                	addi	x8,x2,256
   13538:	2502                	fld	f10,0(x2)
   1353a:	663c                	flw	f15,72(x12)
   1353c:	aa10                	fsd	f12,16(x12)
   1353e:	454e87db          	0x454e87db
   13542:	9d5e4243          	0x9d5e4243
   13546:	b6d6                	fsd	f21,360(x2)
   13548:	0000                	unimp
   1354a:	501e                	0x501e
   1354c:	4d59                	li	x26,22
   1354e:	2020                	fld	f8,64(x8)
   13550:	0020                	addi	x8,x2,8
   13552:	0119                	addi	x2,x2,6
   13554:	581e                	lw	x16,228(x2)
   13556:	0a00                	addi	x8,x2,272
   13558:	2702                	fld	f14,0(x2)
   1355a:	0f8c0fbf 454e255e 	0x454e255e0f8c0fbf
   13562:	5350                	lw	x12,36(x14)
   13564:	9d5e                	add	x26,x26,x23
   13566:	bbd6                	fsd	f21,496(x2)
   13568:	0000                	unimp
   1356a:	4a0c                	lw	x11,16(x12)
   1356c:	4d59                	li	x26,22
   1356e:	2020                	fld	f8,64(x8)
   13570:	0020                	addi	x8,x2,8
   13572:	021a                	slli	x4,x4,0x6
   13574:	470c                	lw	x11,8(x14)
   13576:	0c00                	addi	x8,x2,528
   13578:	2a02                	fld	f20,0(x2)
   1357a:	bad1                	j	12f4e <raw_data+0x1b0e>
   1357c:	c271                	beqz	x12,13640 <raw_data+0x2200>
   1357e:	2f75                	jal	13d3a <raw_data+0x28fa>
   13580:	454e                	lw	x10,208(x2)
   13582:	9d5e5343          	0x9d5e5343
   13586:	c4d6                	sw	x21,72(x2)
   13588:	0000                	unimp
   1358a:	7c21                	lui	x24,0xfffe8
   1358c:	2046                	fld	f0,80(x2)
   1358e:	2020                	fld	f8,64(x8)
   13590:	0020                	addi	x8,x2,8
   13592:	020e                	slli	x4,x4,0x3
   13594:	8021                	srli	x8,x8,0x8
   13596:	0600                	addi	x8,x2,768
   13598:	2d02                	fld	f26,0(x2)
   1359a:	bee1004b          	fnmsub.q	f0,f2,f14,f23,rne
   1359e:	cd10                	sw	x12,24(x10)
   135a0:	454e                	lw	x10,208(x2)
   135a2:	5350                	lw	x12,36(x14)
   135a4:	9d5e                	add	x26,x26,x23
   135a6:	cad6                	sw	x21,84(x2)
   135a8:	0000                	unimp
   135aa:	5f1f 4d59 2020      	0x20204d595f1f
   135b0:	0020                	addi	x8,x2,8
   135b2:	561f010f          	0x561f010f
   135b6:	0600                	addi	x8,x2,768
   135b8:	2f02                	fld	f30,0(x2)
   135ba:	d4f9                	beqz	x9,13588 <raw_data+0x2148>
   135bc:	acbc                	fsd	f15,88(x9)
   135be:	be1e                	fsd	f7,312(x2)
   135c0:	454e                	lw	x10,208(x2)
   135c2:	9d5e4243          	0x9d5e4243
   135c6:	d0d6                	sw	x21,96(x2)
   135c8:	0000                	unimp
   135ca:	161e                	slli	x12,x12,0x27
   135cc:	20595053          	0x20595053
   135d0:	0020                	addi	x8,x2,8
   135d2:	021a                	slli	x4,x4,0x6
   135d4:	101e                	c.slli	x0,0x27
   135d6:	0b00                	addi	x8,x2,400
   135d8:	3102                	fld	f2,32(x2)
   135da:	8c1d                	sub	x8,x8,x15
   135dc:	bf8d04d3          	0xbf8d04d3
   135e0:	454e                	lw	x10,208(x2)
   135e2:	4250                	lw	x12,4(x12)
   135e4:	9d5e                	add	x26,x26,x23
   135e6:	e0d6                	fsw	f21,64(x2)
   135e8:	0000                	unimp
   135ea:	2728                	fld	f10,72(x14)
   135ec:	464e                	lw	x12,208(x2)
   135ee:	584c                	lw	x11,52(x8)
   135f0:	0020                	addi	x8,x2,8
   135f2:	2d280113          	addi	x2,x16,722 # 132d2 <raw_data+0x1e92>
   135f6:	0c00                	addi	x8,x2,528
   135f8:	3202                	fld	f4,32(x2)
   135fa:	3d66                	fld	f26,120(x2)
   135fc:	17a08e2b          	0x17a08e2b
   13600:	454e                	lw	x10,208(x2)
   13602:	4250                	lw	x12,4(x12)
   13604:	9d5e                	add	x26,x26,x23
   13606:	e6d6                	fsw	f21,76(x2)
   13608:	0000                	unimp
   1360a:	930d                	srli	x14,x14,0x23
   1360c:	474f4f47          	fmsub.q	f30,f30,f20,f8,rmm
   13610:	004c                	addi	x11,x2,4
   13612:	021e                	slli	x4,x4,0x7
   13614:	970d                	srai	x14,x14,0x23
   13616:	0800                	addi	x8,x2,16
   13618:	3302                	fld	f6,32(x2)
   1361a:	4245                	li	x4,17
   1361c:	5c4e                	lw	x24,240(x2)
   1361e:	d8e5                	beqz	x9,1360e <raw_data+0x21ce>
   13620:	454e                	lw	x10,208(x2)
   13622:	9d5e5343          	0x9d5e5343
   13626:	efd6                	fsw	f21,220(x2)
   13628:	0000                	unimp
   1362a:	ad12                	fsd	f4,152(x2)
   1362c:	20495457          	0x20495457
   13630:	0020                	addi	x8,x2,8
   13632:	021d                	addi	x4,x4,7
   13634:	a512                	fsd	f4,136(x2)
   13636:	0300                	addi	x8,x2,384
   13638:	3402                	fld	f8,32(x2)
   1363a:	7e04                	flw	f9,56(x12)
   1363c:	b23e                	fsd	f15,288(x2)
   1363e:	98c1                	andi	x9,x9,-16
   13640:	454e                	lw	x10,208(x2)
   13642:	9d5e5343          	0x9d5e5343
   13646:	f6d6                	fsw	f21,108(x2)
   13648:	0000                	unimp
   1364a:	7a32                	flw	f20,44(x2)
   1364c:	20495457          	0x20495457
   13650:	0020                	addi	x8,x2,8
   13652:	8c32011b          	0x8c32011b
   13656:	0600                	addi	x8,x2,768
   13658:	3502                	fld	f10,32(x2)
   1365a:	da0d2957          	0xda0d2957
   1365e:	7f9e                	flw	f31,228(x2)
   13660:	454e                	lw	x10,208(x2)
   13662:	9d5e5343          	0x9d5e5343
   13666:	000001d7          	0x1d7
   1366a:	7b06                	flw	f22,96(x2)
   1366c:	464e                	lw	x12,208(x2)
   1366e:	584c                	lw	x11,52(x8)
   13670:	0020                	addi	x8,x2,8
   13672:	7f060123          	sb	x16,2018(x12) # 2047cf2c <__BSS_END__+0x20466fd4>
   13676:	0300                	addi	x8,x2,384
   13678:	3702                	fld	f14,32(x2)
   1367a:	75e1                	lui	x11,0xffff8
   1367c:	6d01                	0x6d01
   1367e:	0b1c                	addi	x15,x2,400
   13680:	7944                	flw	f9,52(x10)
   13682:	9d5e5343          	0x9d5e5343
   13686:	000006d7          	0x6d7
   1368a:	fc06                	fsw	f1,56(x2)
   1368c:	20595053          	0x20595053
   13690:	0020                	addi	x8,x2,8
   13692:	021c                	addi	x15,x2,256
   13694:	06000307          	0x6000307
   13698:	3802                	fld	f16,32(x2)
   1369a:	53c2                	lw	x7,48(x2)
   1369c:	b6f07c4b          	fnmsub.q	f24,f0,f15,f22
   136a0:	454e                	lw	x10,208(x2)
   136a2:	9d5e5343          	0x9d5e5343
   136a6:	00000fd7          	0xfd7
   136aa:	4216                	lw	x4,68(x2)
   136ac:	4141                	li	x2,16
   136ae:	4c50                	lw	x12,28(x8)
   136b0:	0020                	addi	x8,x2,8
   136b2:	0109                	addi	x2,x2,2
   136b4:	3816                	fld	f16,352(x2)
   136b6:	0700                	addi	x8,x2,896
   136b8:	3a02                	fld	f20,32(x2)
   136ba:	cf95                	beqz	x15,136f6 <raw_data+0x22b6>
   136bc:	09f8a07b          	0x9f8a07b
   136c0:	6648                	flw	f10,12(x12)
   136c2:	5350                	lw	x12,36(x14)
   136c4:	9d5e                	add	x26,x26,x23
   136c6:	000017d7          	0x17d7
   136ca:	b229                	j	12fd4 <raw_data+0x1b94>
   136cc:	5345                	li	x6,-15
   136ce:	2020                	fld	f8,64(x8)
   136d0:	0020                	addi	x8,x2,8
   136d2:	a0290103          	lb	x2,-1534(x18) # fffdfa02 <__BSS_END__+0xfffc9aaa>
   136d6:	0400                	addi	x8,x2,512
   136d8:	3b02                	fld	f22,32(x2)
   136da:	f581                	bnez	x11,135e2 <raw_data+0x21a2>
   136dc:	d292                	sw	x4,100(x2)
   136de:	09da                	slli	x19,x19,0x16
   136e0:	454e                	lw	x10,208(x2)
   136e2:	4250                	lw	x12,4(x12)
   136e4:	9d5e                	add	x26,x26,x23
   136e6:	00001fd7          	0x1fd7
   136ea:	ff0e                	fsw	f3,188(x2)
   136ec:	5345                	li	x6,-15
   136ee:	2020                	fld	f8,64(x8)
   136f0:	0020                	addi	x8,x2,8
   136f2:	0114                	addi	x13,x2,128
   136f4:	fd0e                	fsw	f3,184(x2)
   136f6:	0200                	addi	x8,x2,256
   136f8:	3c02                	fld	f24,32(x2)
   136fa:	9dac                	0x9dac
   136fc:	a6ea                	fsd	f26,328(x2)
   136fe:	9e32                	add	x28,x28,x12
   13700:	454e                	lw	x10,208(x2)
   13702:	9d5e4243          	0x9d5e4243
   13706:	000022d7          	0x22d7
   1370a:	50532017          	auipc	x0,0x50532
   1370e:	2059                	jal	13794 <raw_data+0x2354>
   13710:	0020                	addi	x8,x2,8
   13712:	0215                	addi	x4,x4,5
   13714:	07002317          	auipc	x6,0x7002
   13718:	3f02                	fld	f30,32(x2)
   1371a:	984d                	andi	x8,x8,-13
   1371c:	89e0                	0x89e0
   1371e:	eda2                	fsw	f8,216(x2)
   13720:	454e                	lw	x10,208(x2)
   13722:	5350                	lw	x12,36(x14)
   13724:	9d5e                	add	x26,x26,x23
   13726:	00002ad7          	0x2ad7
   1372a:	f616                	fsw	f5,44(x2)
   1372c:	464e                	lw	x12,208(x2)
   1372e:	584c                	lw	x11,52(x8)
   13730:	0020                	addi	x8,x2,8
   13732:	0215                	addi	x4,x4,5
   13734:	03000a17          	auipc	x20,0x3000
   13738:	4102                	lw	x2,0(x2)
   1373a:	a916                	fsd	f5,144(x2)
   1373c:	381b166f          	jal	x12,c52bc <__BSS_END__+0xaf364>
   13740:	454e                	lw	x10,208(x2)
   13742:	4250                	lw	x12,4(x12)
   13744:	9d5e                	add	x26,x26,x23
   13746:	00002dd7          	0x2dd7
   1374a:	9c0e                	add	x24,x24,x3
   1374c:	474f4f47          	fmsub.q	f30,f30,f20,f8,rmm
   13750:	004c                	addi	x11,x2,4
   13752:	0204                	addi	x9,x2,256
   13754:	890e                	mv	x18,x3
   13756:	0500                	addi	x8,x2,640
   13758:	4202                	lw	x4,0(x2)
   1375a:	7735aa3f 454ea40b 	0x454ea40b7735aa3f
   13762:	9d5e5343          	0x9d5e5343
   13766:	000036d7          	0x36d7
   1376a:	4141d317          	auipc	x6,0x4141d
   1376e:	4c50                	lw	x12,28(x8)
   13770:	0020                	addi	x8,x2,8
   13772:	0108                	addi	x10,x2,128
   13774:	0400d617          	auipc	x12,0x400d
   13778:	4202                	lw	x4,0(x2)
   1377a:	c2b5                	beqz	x13,137de <raw_data+0x239e>
   1377c:	52f1                	li	x5,-4
   1377e:	454eef4f          	0x454eef4f
   13782:	9d5e5343          	0x9d5e5343
   13786:	00003dd7          	0x3dd7
   1378a:	f721                	bnez	x14,136d2 <raw_data+0x2292>
   1378c:	20595053          	0x20595053
   13790:	0020                	addi	x8,x2,8
   13792:	eb210207          	0xeb210207
   13796:	0300                	addi	x8,x2,384
   13798:	4302                	lw	x6,0(x2)
   1379a:	75cc                	flw	f11,44(x11)
   1379c:	ae0d                	j	13ace <raw_data+0x268e>
   1379e:	454e17b3          	0x454e17b3
   137a2:	9d5e4243          	0x9d5e4243
   137a6:	000047d7          	0x47d7
   137aa:	c308                	sw	x10,0(x14)
   137ac:	20585053          	0x20585053
   137b0:	0020                	addi	x8,x2,8
   137b2:	021c                	addi	x15,x2,256
   137b4:	b808                	fsd	f10,48(x8)
   137b6:	0200                	addi	x8,x2,256
   137b8:	4502                	lw	x10,0(x2)
   137ba:	e370                	fsw	f12,68(x14)
   137bc:	c49d                	beqz	x9,137ea <raw_data+0x23aa>
   137be:	3c40                	fld	f8,184(x8)
   137c0:	454e                	lw	x10,208(x2)
   137c2:	9d5e4243          	0x9d5e4243
   137c6:	00004ed7          	0x4ed7
   137ca:	5457da37          	lui	x20,0x5457d
   137ce:	2049                	jal	13850 <raw_data+0x2410>
   137d0:	0020                	addi	x8,x2,8
   137d2:	0206                	slli	x4,x4,0x1
   137d4:	0d00d837          	lui	x16,0xd00d
   137d8:	4702                	lw	x14,0(x2)
   137da:	d11e                	sw	x7,160(x2)
   137dc:	2d4d                	jal	13e8e <raw_data+0x2a4e>
   137de:	82b6                	mv	x5,x13
   137e0:	454e                	lw	x10,208(x2)
   137e2:	4250                	lw	x12,4(x12)
   137e4:	9d5e                	add	x26,x26,x23
   137e6:	000053d7          	0x53d7
   137ea:	b106                	fsd	f1,160(x2)
   137ec:	20585053          	0x20585053
   137f0:	0020                	addi	x8,x2,8
   137f2:	020e                	slli	x4,x4,0x3
   137f4:	b706                	fsd	f1,424(x2)
   137f6:	0500                	addi	x8,x2,640
   137f8:	4802                	lw	x16,0(x2)
   137fa:	504d                	c.li	x0,-13
   137fc:	83a9                	srli	x15,x15,0xa
   137fe:	454e2de7          	0x454e2de7
   13802:	9d5e5343          	0x9d5e5343
   13806:	000058d7          	0x58d7
   1380a:	bb1f 5345 2020      	0x20205345bb1f
   13810:	0020                	addi	x8,x2,8
   13812:	0112                	slli	x2,x2,0x4
   13814:	a91f 0800 4b02      	0x4b020800a91f
   1381a:	45a5                	li	x11,9
   1381c:	77e9                	lui	x15,0xffffa
   1381e:	ba5c                	fsd	f15,176(x12)
   13820:	454e                	lw	x10,208(x2)
   13822:	9d5e4243          	0x9d5e4243
   13826:	000062d7          	0x62d7
   1382a:	4141c633          	0x4141c633
   1382e:	4c50                	lw	x12,28(x8)
   13830:	0020                	addi	x8,x2,8
   13832:	0114                	addi	x13,x2,128
   13834:	0200b633          	mulhu	x12,x1,x0
   13838:	4e02                	lw	x28,0(x2)
   1383a:	2e70                	fld	f12,216(x12)
   1383c:	6c28                	flw	f10,88(x8)
   1383e:	8358                	0x8358
   13840:	454e                	lw	x10,208(x2)
   13842:	4250                	lw	x12,4(x12)
   13844:	9d5e                	add	x26,x26,x23
   13846:	000066d7          	0x66d7
   1384a:	cf0a                	sw	x2,156(x2)
   1384c:	474f4f47          	fmsub.q	f30,f30,f20,f8,rmm
   13850:	004c                	addi	x11,x2,4
   13852:	d40a0203          	lb	x4,-704(x20) # 5457cd40 <__BSS_END__+0x54566de8>
   13856:	0900                	addi	x8,x2,144
   13858:	5102                	lw	x2,32(x2)
   1385a:	6bf8                	flw	f14,84(x15)
   1385c:	6294                	flw	f13,0(x13)
   1385e:	f8bc                	fsw	f15,112(x9)
   13860:	454e                	lw	x10,208(x2)
   13862:	9d5e5343          	0x9d5e5343
   13866:	00006ad7          	0x6ad7
   1386a:	3920                	fld	f8,112(x10)
   1386c:	4141                	li	x2,16
   1386e:	4c50                	lw	x12,28(x8)
   13870:	0020                	addi	x8,x2,8
   13872:	0220                	addi	x8,x2,264
   13874:	3e20                	fld	f8,120(x12)
   13876:	0d00                	addi	x8,x2,656
   13878:	5202                	lw	x4,32(x2)
   1387a:	8fa1                	xor	x15,x15,x8
   1387c:	444fc72f          	0x444fc72f
   13880:	454e                	lw	x10,208(x2)
   13882:	5350                	lw	x12,36(x14)
   13884:	9d5e                	add	x26,x26,x23
   13886:	00006fd7          	0x6fd7
   1388a:	d508                	sw	x10,40(x10)
   1388c:	20595053          	0x20595053
   13890:	0020                	addi	x8,x2,8
   13892:	0104                	addi	x9,x2,128
   13894:	ca08                	sw	x10,16(x12)
   13896:	0b00                	addi	x8,x2,400
   13898:	5302                	lw	x6,32(x2)
   1389a:	dafb0bc3          	fmadd.d	f23,f22,f15,f27,rne
   1389e:	2428                	fld	f10,72(x8)
   138a0:	454e                	lw	x10,208(x2)
   138a2:	9d5e4243          	0x9d5e4243
   138a6:	000076d7          	0x76d7
   138aa:	db1f 5053 2059      	0x20595053db1f
   138b0:	0020                	addi	x8,x2,8
   138b2:	0122                	slli	x2,x2,0x8
   138b4:	d81f 0800 5502      	0x55020800d81f
   138ba:	841a                	mv	x8,x6
   138bc:	c250                	sw	x12,4(x12)
   138be:	d95d                	beqz	x10,13874 <raw_data+0x2434>
   138c0:	454e                	lw	x10,208(x2)
   138c2:	9d5e5343          	0x9d5e5343
   138c6:	00007ad7          	0x7ad7
   138ca:	f20e                	fsw	f3,36(x2)
   138cc:	4141                	li	x2,16
   138ce:	4c50                	lw	x12,28(x8)
   138d0:	0020                	addi	x8,x2,8
   138d2:	0105                	addi	x2,x2,1
   138d4:	0a00050f          	0xa00050f
   138d8:	5602                	lw	x12,32(x2)
   138da:	187f                	0x187f
   138dc:	58ce                	lw	x17,240(x2)
   138de:	c6c8                	sw	x10,12(x13)
   138e0:	454e                	lw	x10,208(x2)
   138e2:	4250                	lw	x12,4(x12)
   138e4:	9d5e                	add	x26,x26,x23
   138e6:	00007dd7          	0x7dd7
   138ea:	5611                	li	x12,-28
   138ec:	4141                	li	x2,16
   138ee:	4c50                	lw	x12,28(x8)
   138f0:	0020                	addi	x8,x2,8
   138f2:	0222                	slli	x4,x4,0x8
   138f4:	5211                	li	x4,-28
   138f6:	0600                	addi	x8,x2,768
   138f8:	5902                	lw	x18,32(x2)
   138fa:	c44d                	beqz	x8,139a4 <raw_data+0x2564>
   138fc:	42a5                	li	x5,9
   138fe:	3386                	fld	f7,96(x2)
   13900:	454e                	lw	x10,208(x2)
   13902:	5350                	lw	x12,36(x14)
   13904:	9d5e                	add	x26,x26,x23
   13906:	000084d7          	0x84d7
   1390a:	7e36                	flw	f28,108(x2)
   1390c:	4d59                	li	x26,22
   1390e:	2020                	fld	f8,64(x8)
   13910:	0020                	addi	x8,x2,8
   13912:	8e360107          	0x8e360107
   13916:	0600                	addi	x8,x2,768
   13918:	5c02                	lw	x24,32(x2)
   1391a:	5f45                	li	x30,-15
   1391c:	4279                	li	x4,30
   1391e:	da00                	sw	x8,48(x12)
   13920:	454e                	lw	x10,208(x2)
   13922:	9d5e4243          	0x9d5e4243
   13926:	00008ed7          	0x8ed7
   1392a:	cb14                	sw	x13,16(x14)
   1392c:	464e                	lw	x12,208(x2)
   1392e:	584c                	lw	x11,52(x8)
   13930:	0020                	addi	x8,x2,8
   13932:	0116                	slli	x2,x2,0x5
   13934:	b914                	fsd	f13,48(x10)
   13936:	0200                	addi	x8,x2,256
   13938:	5c02                	lw	x24,32(x2)
   1393a:	0aad                	addi	x21,x21,11
   1393c:	59084e97          	auipc	x29,0x59084
   13940:	454e                	lw	x10,208(x2)
   13942:	9d5e5343          	0x9d5e5343
   13946:	000098d7          	0x98d7
   1394a:	231d                	jal	13e70 <raw_data+0x2a30>
   1394c:	20595053          	0x20595053
   13950:	0020                	addi	x8,x2,8
   13952:	2d1d0217          	auipc	x4,0x2d1d0
   13956:	0500                	addi	x8,x2,640
   13958:	5f02                	lw	x30,32(x2)
   1395a:	7385                	lui	x7,0xfffe1
   1395c:	ebd94df7          	0xebd94df7
   13960:	454e                	lw	x10,208(x2)
   13962:	9d5e5343          	0x9d5e5343
   13966:	00009dd7          	0x9dd7
   1396a:	f02a                	fsw	f10,32(x2)
   1396c:	2046                	fld	f0,80(x2)
   1396e:	2020                	fld	f8,64(x8)
   13970:	0020                	addi	x8,x2,8
   13972:	0114                	addi	x13,x2,128
   13974:	ee2a                	fsw	f10,28(x2)
   13976:	0300                	addi	x8,x2,384
   13978:	6202                	flw	f4,0(x2)
   1397a:	fe2f363f 454e4027 	0x454e4027fe2f363f
   13982:	9d5e5343          	0x9d5e5343
   13986:	0000a0d7          	0xa0d7
   1398a:	4d599f13          	0x4d599f13
   1398e:	2020                	fld	f8,64(x8)
   13990:	0020                	addi	x8,x2,8
   13992:	021e                	slli	x4,x4,0x7
   13994:	0a009913          	0xa009913
   13998:	6302                	flw	f6,0(x2)
   1399a:	d569                	beqz	x10,13964 <raw_data+0x2524>
   1399c:	7340                	flw	f8,36(x14)
   1399e:	93fe                	add	x7,x7,x31
   139a0:	454e                	lw	x10,208(x2)
   139a2:	4250                	lw	x12,4(x12)
   139a4:	9d5e                	add	x26,x26,x23
   139a6:	0000a4d7          	0xa4d7
   139aa:	2e08                	fld	f10,24(x12)
   139ac:	474f4f47          	fmsub.q	f30,f30,f20,f8,rmm
   139b0:	004c                	addi	x11,x2,4
   139b2:	021f 3b08 0200      	0x2003b08021f
   139b8:	6302                	flw	f6,0(x2)
   139ba:	82d5                	srli	x13,x13,0x15
   139bc:	b0dee773          	csrrsi	x14,mhpmcounter13,29
   139c0:	454e                	lw	x10,208(x2)
   139c2:	9d5e4243          	0x9d5e4243
   139c6:	0000b5d7          	0xb5d7
   139ca:	1d11                	addi	x26,x26,-28
   139cc:	464e                	lw	x12,208(x2)
   139ce:	584c                	lw	x11,52(x8)
   139d0:	0020                	addi	x8,x2,8
   139d2:	0111                	addi	x2,x2,4
   139d4:	1d11                	addi	x26,x26,-28
   139d6:	0c00                	addi	x8,x2,528
   139d8:	6902                	flw	f18,0(x2)
   139da:	46b1                	li	x13,12
   139dc:	c0bc7abb          	0xc0bc7abb
   139e0:	454e                	lw	x10,208(x2)
   139e2:	9d5e4243          	0x9d5e4243
   139e6:	0000bdd7          	0xbdd7
   139ea:	5345cb0b          	0x5345cb0b
   139ee:	2020                	fld	f8,64(x8)
   139f0:	0020                	addi	x8,x2,8
   139f2:	021f bf0b 0c00      	0xc00bf0b021f
   139f8:	6d02                	flw	f26,0(x2)
   139fa:	6912                	flw	f18,4(x2)
   139fc:	4da9                	li	x27,10
   139fe:	9031                	srli	x8,x8,0x2c
   13a00:	454e                	lw	x10,208(x2)
   13a02:	9d5e4243          	0x9d5e4243
   13a06:	0000c0d7          	0xc0d7
   13a0a:	810e                	mv	x2,x3
   13a0c:	464e                	lw	x12,208(x2)
   13a0e:	584c                	lw	x11,52(x8)
   13a10:	0020                	addi	x8,x2,8
   13a12:	7c0e0213          	addi	x4,x28,1984 # 4f49094a <__BSS_END__+0x4f47a9f2>
   13a16:	0700                	addi	x8,x2,896
   13a18:	6e02                	flw	f28,0(x2)
   13a1a:	0d7145b3          	0xd7145b3
   13a1e:	2722                	fld	f14,8(x2)
   13a20:	454e                	lw	x10,208(x2)
   13a22:	9d5e5343          	0x9d5e5343
   13a26:	0000c9d7          	0xc9d7
   13a2a:	4d59a527          	fsw	f21,1226(x19) # 154ca <raw_data+0x408a>
   13a2e:	2020                	fld	f8,64(x8)
   13a30:	0020                	addi	x8,x2,8
   13a32:	0116                	slli	x2,x2,0x5
   13a34:	0c009b27          	0xc009b27
   13a38:	7102                	flw	f2,32(x2)
   13a3a:	ff12                	fsw	f4,188(x2)
   13a3c:	ead2                	fsw	f20,84(x2)
   13a3e:	454ef903          	0x454ef903
   13a42:	9d5e5343          	0x9d5e5343
   13a46:	0000d1d7          	0xd1d7
   13a4a:	5457ff2f          	0x5457ff2f
   13a4e:	2049                	jal	13ad0 <raw_data+0x2690>
   13a50:	0020                	addi	x8,x2,8
   13a52:	0e30010b          	0xe30010b
   13a56:	0500                	addi	x8,x2,640
   13a58:	7202                	flw	f4,32(x2)
   13a5a:	5839                	li	x16,-18
   13a5c:	31ba                	fld	f3,424(x2)
   13a5e:	454e7907          	0x454e7907
   13a62:	5350                	lw	x12,36(x14)
   13a64:	9d5e                	add	x26,x26,x23
   13a66:	0000dbd7          	0xdbd7
   13a6a:	e108                	fsw	f10,0(x10)
   13a6c:	20585053          	0x20585053
   13a70:	0020                	addi	x8,x2,8
   13a72:	0210                	addi	x12,x2,256
   13a74:	d908                	sw	x10,48(x10)
   13a76:	0d00                	addi	x8,x2,656
   13a78:	7502                	flw	f10,32(x2)
   13a7a:	0d02e00f          	0xd02e00f
   13a7e:	c37a                	sw	x30,132(x2)
   13a80:	454e                	lw	x10,208(x2)
   13a82:	9d5e5343          	0x9d5e5343
   13a86:	0000e2d7          	0xe2d7
   13a8a:	4d59c407          	flq	f8,1237(x19)
   13a8e:	2020                	fld	f8,64(x8)
   13a90:	0020                	addi	x8,x2,8
   13a92:	0114                	addi	x13,x2,128
   13a94:	0300cf07          	flq	f30,48(x1)
   13a98:	7602                	flw	f12,32(x2)
   13a9a:	3715                	jal	139be <raw_data+0x257e>
   13a9c:	edb5                	bnez	x11,13b18 <raw_data+0x26d8>
   13a9e:	454e599b          	0x454e599b
   13aa2:	9d5e4243          	0x9d5e4243
   13aa6:	0000e7d7          	0xe7d7
   13aaa:	8712                	mv	x14,x4
   13aac:	20595053          	0x20595053
   13ab0:	0020                	addi	x8,x2,8
   13ab2:	010a                	slli	x2,x2,0x2
   13ab4:	8212                	mv	x4,x4
   13ab6:	0900                	addi	x8,x2,144
   13ab8:	7802                	flw	f16,32(x2)
   13aba:	87c0                	0x87c0
   13abc:	51d5                	li	x3,-11
   13abe:	c2ac                	sw	x11,64(x13)
   13ac0:	454e                	lw	x10,208(x2)
   13ac2:	5350                	lw	x12,36(x14)
   13ac4:	9d5e                	add	x26,x26,x23
   13ac6:	0000f8d7          	0xf8d7
   13aca:	0b1f 4f47 474f      	0x474f4f470b1f
   13ad0:	004c                	addi	x11,x2,4
   13ad2:	0f1f0213          	addi	x4,x30,241 # ffff30f1 <__BSS_END__+0xfffdd199>
   13ad6:	0a00                	addi	x8,x2,272
   13ad8:	7e02                	flw	f28,32(x2)
   13ada:	9b86                	add	x23,x23,x1
   13adc:	9bf1                	andi	x15,x15,-4
   13ade:	9281                	srli	x13,x13,0x20
   13ae0:	454e                	lw	x10,208(x2)
   13ae2:	9d5e5343          	0x9d5e5343
   13ae6:	0000ffd7          	0xffd7
   13aea:	b12d                	j	13714 <raw_data+0x22d4>
   13aec:	20495457          	0x20495457
   13af0:	0020                	addi	x8,x2,8
   13af2:	a42d011b          	0xa42d011b
   13af6:	0a00                	addi	x8,x2,272
   13af8:	8002                	0x8002
   13afa:	8dca                	mv	x27,x18
   13afc:	f10e                	fsw	f3,160(x2)
   13afe:	f9fd                	bnez	x11,13af4 <raw_data+0x26b4>
   13b00:	454e                	lw	x10,208(x2)
   13b02:	9d5e5343          	0x9d5e5343
   13b06:	05d8                	addi	x14,x2,708
   13b08:	0000                	unimp
   13b0a:	2046722f          	0x2046722f
   13b0e:	2020                	fld	f8,64(x8)
   13b10:	0020                	addi	x8,x2,8
   13b12:	0114                	addi	x13,x2,128
   13b14:	0c00742f          	0xc00742f
   13b18:	8102                	jr	x2
   13b1a:	61cd                	lui	x3,0x13
   13b1c:	a946                	fsd	f17,144(x2)
   13b1e:	0416                	slli	x8,x8,0x5
   13b20:	454e                	lw	x10,208(x2)
   13b22:	9d5e5343          	0x9d5e5343
   13b26:	0ad8                	addi	x14,x2,340
   13b28:	0000                	unimp
   13b2a:	dd09                	beqz	x10,13a44 <raw_data+0x2604>
   13b2c:	20495457          	0x20495457
   13b30:	0020                	addi	x8,x2,8
   13b32:	ea09021b          	0xea09021b
   13b36:	0500                	addi	x8,x2,640
   13b38:	8202                	jr	x4
   13b3a:	6214e0c3          	fmadd.d	f1,f9,f1,f12,unknown
   13b3e:	e615                	bnez	x12,13b6a <raw_data+0x272a>
   13b40:	454e                	lw	x10,208(x2)
   13b42:	4250                	lw	x12,4(x12)
   13b44:	9d5e                	add	x26,x26,x23
   13b46:	0fd8                	addi	x14,x2,980
   13b48:	0000                	unimp
   13b4a:	4514                	lw	x13,8(x10)
   13b4c:	474f4f47          	fmsub.q	f30,f30,f20,f8,rmm
   13b50:	004c                	addi	x11,x2,4
   13b52:	3f14010f          	0x3f14010f
   13b56:	0c00                	addi	x8,x2,528
   13b58:	8402                	jr	x8
   13b5a:	2449                	jal	13ddc <raw_data+0x299c>
   13b5c:	92a6                	add	x5,x5,x9
   13b5e:	8c25                	xor	x8,x8,x9
   13b60:	454e                	lw	x10,208(x2)
   13b62:	9d5e5343          	0x9d5e5343
   13b66:	15d8                	addi	x14,x2,740
   13b68:	0000                	unimp
   13b6a:	4a09                	li	x20,2
   13b6c:	4141                	li	x2,16
   13b6e:	4c50                	lw	x12,28(x8)
   13b70:	0020                	addi	x8,x2,8
   13b72:	0220                	addi	x8,x2,264
   13b74:	3e09                	jal	13686 <raw_data+0x2246>
   13b76:	0200                	addi	x8,x2,256
   13b78:	8602                	jr	x12
   13b7a:	31a0                	fld	f8,96(x11)
   13b7c:	0585                	addi	x11,x11,1
   13b7e:	454ef2a3          	0x454ef2a3
   13b82:	5350                	lw	x12,36(x14)
   13b84:	9d5e                	add	x26,x26,x23
   13b86:	1dd8                	addi	x14,x2,756
   13b88:	0000                	unimp
   13b8a:	2e28                	fld	f10,88(x12)
   13b8c:	20595053          	0x20595053
   13b90:	0020                	addi	x8,x2,8
   13b92:	3a28010f          	0x3a28010f
   13b96:	0700                	addi	x8,x2,896
   13b98:	8902                	jr	x18
   13b9a:	4082                	lw	x1,0(x2)
   13b9c:	a1bd                	j	1400a <raw_data+0x2bca>
   13b9e:	cda2                	sw	x8,216(x2)
   13ba0:	454e                	lw	x10,208(x2)
   13ba2:	4250                	lw	x12,4(x12)
   13ba4:	9d5e                	add	x26,x26,x23
   13ba6:	26d8                	fld	f14,136(x13)
   13ba8:	0000                	unimp
   13baa:	a100                	fsd	f8,0(x10)
   13bac:	4d59                	li	x26,22
   13bae:	2020                	fld	f8,64(x8)
   13bb0:	0020                	addi	x8,x2,8
   13bb2:	0220                	addi	x8,x2,264
   13bb4:	9100                	0x9100
   13bb6:	0300                	addi	x8,x2,384
   13bb8:	8c02                	jr	x24
   13bba:	4e01                	li	x28,0
   13bbc:	66b5                	lui	x13,0xd
   13bbe:	454e376b          	0x454e376b
   13bc2:	9d5e5343          	0x9d5e5343
   13bc6:	2cd8                	fld	f14,152(x9)
   13bc8:	0000                	unimp
   13bca:	db06                	sw	x1,180(x2)
   13bcc:	20495457          	0x20495457
   13bd0:	0020                	addi	x8,x2,8
   13bd2:	db060117          	auipc	x2,0xdb060
   13bd6:	0400                	addi	x8,x2,512
   13bd8:	8d02                	jr	x26
   13bda:	68a0                	flw	f8,80(x9)
   13bdc:	0032                	c.slli	x0,0xc
   13bde:	3ddc                	fld	f15,184(x11)
   13be0:	7a44                	flw	f9,52(x12)
   13be2:	4250                	lw	x12,4(x12)
   13be4:	9d5e                	add	x26,x26,x23
   13be6:	32d8                	fld	f14,160(x13)
   13be8:	0000                	unimp
   13bea:	1410                	addi	x12,x2,544
   13bec:	2046                	fld	f0,80(x2)
   13bee:	2020                	fld	f8,64(x8)
   13bf0:	0020                	addi	x8,x2,8
   13bf2:	011d                	addi	x2,x2,7
   13bf4:	1c10                	addi	x12,x2,560
   13bf6:	0a00                	addi	x8,x2,272
   13bf8:	8f02                	jr	x30
   13bfa:	784d                	lui	x16,0xffff3
   13bfc:	6af1                	lui	x21,0x1c
   13bfe:	1d26                	slli	x26,x26,0x29
   13c00:	454e                	lw	x10,208(x2)
   13c02:	4250                	lw	x12,4(x12)
   13c04:	9d5e                	add	x26,x26,x23
   13c06:	39d8                	fld	f14,176(x11)
   13c08:	0000                	unimp
   13c0a:	3726                	fld	f14,104(x2)
   13c0c:	20495457          	0x20495457
   13c10:	0020                	addi	x8,x2,8
   13c12:	3726010f          	0x3726010f
   13c16:	0b00                	addi	x8,x2,400
   13c18:	9002                	ebreak
   13c1a:	548d                	li	x9,-29
   13c1c:	ed6d                	bnez	x10,13d16 <raw_data+0x28d6>
   13c1e:	454e1783          	lh	x15,1108(x28)
   13c22:	5350                	lw	x12,36(x14)
   13c24:	9d5e                	add	x26,x26,x23
   13c26:	43d8                	lw	x14,4(x15)
   13c28:	0000                	unimp
   13c2a:	5f20                	lw	x8,120(x14)
   13c2c:	474f4f47          	fmsub.q	f30,f30,f20,f8,rmm
   13c30:	004c                	addi	x11,x2,4
   13c32:	0211                	addi	x4,x4,4
   13c34:	5f20                	lw	x8,120(x14)
   13c36:	0a00                	addi	x8,x2,272
   13c38:	9402                	jalr	x8
   13c3a:	412a                	lw	x2,136(x2)
   13c3c:	23115a2b          	0x23115a2b
   13c40:	53506a43          	fmadd.d	f20,f0,f21,f10,unknown
   13c44:	9d5e                	add	x26,x26,x23
   13c46:	56d8                	lw	x14,44(x13)
   13c48:	0000                	unimp
   13c4a:	0d05                	addi	x26,x26,1
   13c4c:	464e                	lw	x12,208(x2)
   13c4e:	584c                	lw	x11,52(x8)
   13c50:	0020                	addi	x8,x2,8
   13c52:	0208                	addi	x10,x2,256
   13c54:	1105                	addi	x2,x2,-31
   13c56:	0b00                	addi	x8,x2,400
   13c58:	9702                	jalr	x14
   13c5a:	da26                	sw	x9,52(x2)
   13c5c:	8d68                	0x8d68
   13c5e:	5a16                	lw	x20,100(x2)
   13c60:	454e                	lw	x10,208(x2)
   13c62:	9d5e4243          	0x9d5e4243
   13c66:	5ad8                	lw	x14,52(x13)
   13c68:	0000                	unimp
   13c6a:	5053101b          	0x5053101b
   13c6e:	2058                	fld	f14,128(x8)
   13c70:	0020                	addi	x8,x2,8
   13c72:	010a                	slli	x2,x2,0x2
   13c74:	0900241b          	0x900241b
   13c78:	9a02                	jalr	x20
   13c7a:	a2216997          	auipc	x19,0xa2216
   13c7e:	0472                	slli	x8,x8,0x1c
   13c80:	454e                	lw	x10,208(x2)
   13c82:	4250                	lw	x12,4(x12)
   13c84:	9d5e                	add	x26,x26,x23
   13c86:	63d8                	flw	f14,4(x15)
   13c88:	0000                	unimp
   13c8a:	cc22                	sw	x8,24(x2)
   13c8c:	20585053          	0x20585053
   13c90:	0020                	addi	x8,x2,8
   13c92:	021e                	slli	x4,x4,0x7
   13c94:	d222                	sw	x8,36(x2)
   13c96:	0900                	addi	x8,x2,144
   13c98:	9d02                	jalr	x26
   13c9a:	e83fe7d3          	0xe83fe7d3
   13c9e:	9734                	0x9734
   13ca0:	454e                	lw	x10,208(x2)
   13ca2:	5350                	lw	x12,36(x14)
   13ca4:	9d5e                	add	x26,x26,x23
   13ca6:	73d8                	flw	f14,36(x15)
   13ca8:	0000                	unimp
   13caa:	3e2d                	jal	137e4 <raw_data+0x23a4>
   13cac:	5345                	li	x6,-15
   13cae:	2020                	fld	f8,64(x8)
   13cb0:	0020                	addi	x8,x2,8
   13cb2:	0110                	addi	x12,x2,128
   13cb4:	3c2d                	jal	136ee <raw_data+0x22ae>
   13cb6:	0700                	addi	x8,x2,896
   13cb8:	a002                	fsd	f0,0(x2)
   13cba:	4e6816f7          	0x4e6816f7
   13cbe:	454e7cfb          	0x454e7cfb
   13cc2:	4250                	lw	x12,4(x12)
   13cc4:	9d5e                	add	x26,x26,x23
   13cc6:	7bd8                	flw	f14,52(x15)
   13cc8:	0000                	unimp
   13cca:	6b15                	lui	x22,0x5
   13ccc:	2046                	fld	f0,80(x2)
   13cce:	2020                	fld	f8,64(x8)
   13cd0:	0020                	addi	x8,x2,8
   13cd2:	0204                	addi	x9,x2,256
   13cd4:	7515                	lui	x10,0xfffe5
   13cd6:	0c00                	addi	x8,x2,528
   13cd8:	a302                	fsd	f0,384(x2)
   13cda:	14b8                	addi	x14,x2,616
   13cdc:	d62f0bfb          	0xd62f0bfb
   13ce0:	454e                	lw	x10,208(x2)
   13ce2:	9d5e5343          	0x9d5e5343
   13ce6:	7ed8                	flw	f14,60(x13)
   13ce8:	0000                	unimp
   13cea:	7308                	flw	f10,32(x14)
   13cec:	464e                	lw	x12,208(x2)
   13cee:	584c                	lw	x11,52(x8)
   13cf0:	0020                	addi	x8,x2,8
   13cf2:	0112                	slli	x2,x2,0x4
   13cf4:	7908                	flw	f10,48(x10)
   13cf6:	0a00                	addi	x8,x2,272
   13cf8:	a602                	fsd	f0,264(x2)
   13cfa:	97ec29db          	0x97ec29db
   13cfe:	454e3acb          	0x454e3acb
   13d02:	5350                	lw	x12,36(x14)
   13d04:	9d5e                	add	x26,x26,x23
   13d06:	85d8                	0x85d8
   13d08:	0000                	unimp
   13d0a:	464eb813          	sltiu	x16,x29,1124
   13d0e:	584c                	lw	x11,52(x8)
   13d10:	0020                	addi	x8,x2,8
   13d12:	0215                	addi	x4,x4,5
   13d14:	0600b713          	sltiu	x14,x1,96
   13d18:	a902                	fsd	f0,144(x2)
   13d1a:	00a2                	slli	x1,x1,0x8
   13d1c:	8948                	0x8948
   13d1e:	c4c2                	sw	x16,72(x2)
   13d20:	454e                	lw	x10,208(x2)
   13d22:	9d5e5343          	0x9d5e5343
   13d26:	8ed8                	0x8ed8
   13d28:	0000                	unimp
   13d2a:	50530203          	lb	x4,1285(x6) # 41430c6f <__BSS_END__+0x4141ad17>
   13d2e:	2058                	fld	f14,128(x8)
   13d30:	0020                	addi	x8,x2,8
   13d32:	0214                	addi	x13,x2,256
   13d34:	ff02                	fsw	f0,188(x2)
   13d36:	0400                	addi	x8,x2,512
   13d38:	ab02                	fsd	f0,400(x2)
   13d3a:	dded787b          	0xdded787b
   13d3e:	bea5                	j	138b6 <raw_data+0x2476>
   13d40:	454e                	lw	x10,208(x2)
   13d42:	9d5e5343          	0x9d5e5343
   13d46:	98d8                	0x98d8
   13d48:	0000                	unimp
   13d4a:	4141822f          	0x4141822f
   13d4e:	4c50                	lw	x12,28(x8)
   13d50:	0020                	addi	x8,x2,8
   13d52:	011f 8f2f 0a00      	0xa008f2f011f
   13d58:	ab02                	fsd	f0,400(x2)
   13d5a:	c6df 2f15 51ff      	0x51ff2f15c6df
   13d60:	454e                	lw	x10,208(x2)
   13d62:	9d5e4243          	0x9d5e4243
   13d66:	9dd8                	0x9dd8
   13d68:	0000                	unimp
   13d6a:	9225                	srli	x12,x12,0x29
   13d6c:	4d59                	li	x26,22
   13d6e:	2020                	fld	f8,64(x8)
   13d70:	0020                	addi	x8,x2,8
   13d72:	0211                	addi	x4,x4,4
   13d74:	8a25                	andi	x12,x12,9
   13d76:	0c00                	addi	x8,x2,528
   13d78:	ad02                	fsd	f0,152(x2)
   13d7a:	2c04                	fld	f9,24(x8)
   13d7c:	49550f97          	auipc	x31,0x49550
   13d80:	454e                	lw	x10,208(x2)
   13d82:	4250                	lw	x12,4(x12)
   13d84:	9d5e                	add	x26,x26,x23
   13d86:	a7d8                	fsd	f14,136(x15)
   13d88:	0000                	unimp
   13d8a:	8e28                	0x8e28
   13d8c:	20585053          	0x20585053
   13d90:	0020                	addi	x8,x2,8
   13d92:	010d                	addi	x2,x2,3
   13d94:	8228                	0x8228
   13d96:	0800                	addi	x8,x2,16
   13d98:	b102                	fsd	f0,160(x2)
   13d9a:	9050                	0x9050
   13d9c:	4de8                	lw	x10,92(x11)
   13d9e:	f6df 454e 4243      	0x4243454ef6df
   13da4:	9d5e                	add	x26,x26,x23
   13da6:	afd8                	fsd	f14,152(x15)
   13da8:	0000                	unimp
   13daa:	5710                	lw	x12,40(x14)
   13dac:	20495457          	0x20495457
   13db0:	0020                	addi	x8,x2,8
   13db2:	0109                	addi	x2,x2,2
   13db4:	5a10                	lw	x12,48(x12)
   13db6:	0500                	addi	x8,x2,640
   13db8:	b202                	fsd	f0,288(x2)
   13dba:	ed01                	bnez	x10,13dd2 <raw_data+0x2992>
   13dbc:	53e8                	lw	x10,100(x15)
   13dbe:	30e1                	jal	13686 <raw_data+0x2246>
   13dc0:	454e                	lw	x10,208(x2)
   13dc2:	9d5e4243          	0x9d5e4243
   13dc6:	b7d8                	fsd	f14,168(x15)
   13dc8:	0000                	unimp
   13dca:	630a                	flw	f6,128(x2)
   13dcc:	4d59                	li	x26,22
   13dce:	2020                	fld	f8,64(x8)
   13dd0:	0020                	addi	x8,x2,8
   13dd2:	011f 5f0a 0a00      	0xa005f0a011f
   13dd8:	b502                	fsd	f0,168(x2)
   13dda:	15bea01b          	0x15bea01b
   13dde:	aae1                	j	13fb6 <raw_data+0x2b76>
   13de0:	454e                	lw	x10,208(x2)
   13de2:	9d5e5343          	0x9d5e5343
   13de6:	c0d8                	sw	x14,4(x9)
   13de8:	0000                	unimp
   13dea:	1a2a                	slli	x20,x20,0x2a
   13dec:	4141                	li	x2,16
   13dee:	4c50                	lw	x12,28(x8)
   13df0:	0020                	addi	x8,x2,8
   13df2:	1f2a0117          	auipc	x2,0x1f2a0
   13df6:	0200                	addi	x8,x2,256
   13df8:	b602                	fsd	f0,296(x2)
   13dfa:	617e                	flw	f2,220(x2)
   13dfc:	a5c9                	j	144be <raw_data+0x307e>
   13dfe:	454e44b3          	0x454e44b3
   13e02:	5350                	lw	x12,36(x14)
   13e04:	9d5e                	add	x26,x26,x23
   13e06:	c6d8                	sw	x14,12(x13)
   13e08:	0000                	unimp
   13e0a:	ca35                	beqz	x12,13e7e <raw_data+0x2a3e>
   13e0c:	20595053          	0x20595053
   13e10:	0020                	addi	x8,x2,8
   13e12:	0221                	addi	x4,x4,8
   13e14:	cb35                	beqz	x14,13e88 <raw_data+0x2a48>
   13e16:	0200                	addi	x8,x2,256
   13e18:	b802                	fsd	f0,48(x2)
   13e1a:	5f38                	lw	x14,120(x14)
   13e1c:	8f56                	mv	x30,x21
   13e1e:	3ead                	jal	13998 <raw_data+0x2558>
   13e20:	454e                	lw	x10,208(x2)
   13e22:	9d5e5343          	0x9d5e5343
   13e26:	cdd8                	sw	x14,28(x11)
   13e28:	0000                	unimp
   13e2a:	7816                	flw	f16,100(x2)
   13e2c:	20585053          	0x20585053
   13e30:	0020                	addi	x8,x2,8
   13e32:	011c                	addi	x15,x2,128
   13e34:	7e16                	flw	f28,100(x2)
   13e36:	0400                	addi	x8,x2,512
   13e38:	b902                	fsd	f0,176(x2)
   13e3a:	f96a                	fsw	f26,176(x2)
   13e3c:	989e                	add	x17,x17,x7
   13e3e:	ca29                	beqz	x12,13e90 <raw_data+0x2a50>
   13e40:	454e                	lw	x10,208(x2)
   13e42:	9d5e4243          	0x9d5e4243
   13e46:	d2d8                	sw	x14,36(x13)
   13e48:	0000                	unimp
   13e4a:	802d                	srli	x8,x8,0xb
   13e4c:	4141                	li	x2,16
   13e4e:	4c50                	lw	x12,28(x8)
   13e50:	0020                	addi	x8,x2,8
   13e52:	792d0223          	sb	x18,1924(x26) # a784 <_start-0x58fc>
   13e56:	0200                	addi	x8,x2,256
   13e58:	ba02                	fsd	f0,304(x2)
   13e5a:	7029312f          	0x7029312f
   13e5e:	5ed5                	li	x29,-11
   13e60:	454e                	lw	x10,208(x2)
   13e62:	5350                	lw	x12,36(x14)
   13e64:	9d5e                	add	x26,x26,x23
   13e66:	dbd8                	sw	x14,52(x15)
   13e68:	0000                	unimp
   13e6a:	1d39                	addi	x26,x26,-18
   13e6c:	4d59                	li	x26,22
   13e6e:	2020                	fld	f8,64(x8)
   13e70:	0020                	addi	x8,x2,8
   13e72:	0219                	addi	x4,x4,6
   13e74:	2539                	jal	14482 <raw_data+0x3042>
   13e76:	0b00                	addi	x8,x2,400
   13e78:	ba02                	fsd	f0,304(x2)
   13e7a:	53ff                	0x53ff
   13e7c:	5f81e1b3          	0x5f81e1b3
   13e80:	454e                	lw	x10,208(x2)
   13e82:	5350                	lw	x12,36(x14)
   13e84:	9d5e                	add	x26,x26,x23
   13e86:	ded8                	sw	x14,60(x13)
   13e88:	0000                	unimp
   13e8a:	7600                	flw	f8,40(x12)
   13e8c:	4d59                	li	x26,22
   13e8e:	2020                	fld	f8,64(x8)
   13e90:	0020                	addi	x8,x2,8
   13e92:	010c                	addi	x11,x2,128
   13e94:	7700                	flw	f8,40(x14)
   13e96:	0d00                	addi	x8,x2,656
   13e98:	bb02                	fsd	f0,432(x2)
   13e9a:	86b9                	srai	x13,x13,0xe
   13e9c:	bd99                	j	13cf2 <raw_data+0x28b2>
   13e9e:	a8e8                	fsd	f10,208(x9)
   13ea0:	454e                	lw	x10,208(x2)
   13ea2:	5350                	lw	x12,36(x14)
   13ea4:	9d5e                	add	x26,x26,x23
   13ea6:	e4d8                	fsw	f14,12(x9)
   13ea8:	0000                	unimp
   13eaa:	832d                	srli	x14,x14,0xb
   13eac:	2046                	fld	f0,80(x2)
   13eae:	2020                	fld	f8,64(x8)
   13eb0:	0020                	addi	x8,x2,8
   13eb2:	6f2d010f          	0x6f2d010f
   13eb6:	0300                	addi	x8,x2,384
   13eb8:	bc02                	fsd	f0,56(x2)
   13eba:	204e                	fld	f0,208(x2)
   13ebc:	f86bfc93          	andi	x25,x23,-122
   13ec0:	454e                	lw	x10,208(x2)
   13ec2:	4250                	lw	x12,4(x12)
   13ec4:	9d5e                	add	x26,x26,x23
   13ec6:	e7d8                	fsw	f14,12(x15)
   13ec8:	0000                	unimp
   13eca:	cf08                	sw	x10,24(x14)
   13ecc:	4d59                	li	x26,22
   13ece:	2020                	fld	f8,64(x8)
   13ed0:	0020                	addi	x8,x2,8
   13ed2:	cb08020b          	0xcb08020b
   13ed6:	0b00                	addi	x8,x2,400
   13ed8:	be02                	fsd	f0,312(x2)
   13eda:	df2e                	sw	x11,188(x2)
   13edc:	bcc6                	fsd	f17,120(x2)
   13ede:	ae65                	j	14296 <raw_data+0x2e56>
   13ee0:	454e                	lw	x10,208(x2)
   13ee2:	5350                	lw	x12,36(x14)
   13ee4:	9d5e                	add	x26,x26,x23
   13ee6:	ebd8                	fsw	f14,20(x15)
   13ee8:	0000                	unimp
   13eea:	50532e0f          	0x50532e0f
   13eee:	2058                	fld	f14,128(x8)
   13ef0:	0020                	addi	x8,x2,8
   13ef2:	0122                	slli	x2,x2,0x8
   13ef4:	0700390f          	0x700390f
   13ef8:	c102                	sw	x0,128(x2)
   13efa:	918a                	add	x3,x3,x2
   13efc:	caaa                	sw	x10,84(x2)
   13efe:	fe39                	bnez	x12,13e5c <raw_data+0x2a1c>
   13f00:	454e                	lw	x10,208(x2)
   13f02:	9d5e5343          	0x9d5e5343
   13f06:	eed8                	fsw	f14,28(x13)
   13f08:	0000                	unimp
   13f0a:	3502                	fld	f10,32(x2)
   13f0c:	4141                	li	x2,16
   13f0e:	4c50                	lw	x12,28(x8)
   13f10:	0020                	addi	x8,x2,8
   13f12:	0108                	addi	x10,x2,128
   13f14:	4002                	0x4002
   13f16:	0300                	addi	x8,x2,384
   13f18:	c202                	sw	x0,4(x2)
   13f1a:	2aa5                	jal	14092 <raw_data+0x2c52>
   13f1c:	80a0                	0x80a0
   13f1e:	adb0                	fsd	f12,88(x11)
   13f20:	454e                	lw	x10,208(x2)
   13f22:	5350                	lw	x12,36(x14)
   13f24:	9d5e                	add	x26,x26,x23
   13f26:	f6d8                	fsw	f14,44(x13)
   13f28:	0000                	unimp
   13f2a:	8d39                	xor	x10,x10,x14
   13f2c:	20585053          	0x20585053
   13f30:	0020                	addi	x8,x2,8
   13f32:	021a                	slli	x4,x4,0x6
   13f34:	7a39                	lui	x20,0xfffee
   13f36:	0800                	addi	x8,x2,16
   13f38:	c502                	sw	x0,136(x2)
   13f3a:	ac98                	fsd	f14,24(x9)
   13f3c:	0526                	slli	x10,x10,0x9
   13f3e:	454e9613          	0x454e9613
   13f42:	5350                	lw	x12,36(x14)
   13f44:	9d5e                	add	x26,x26,x23
   13f46:	f9d8                	fsw	f14,52(x11)
   13f48:	0000                	unimp
   13f4a:	6e18                	flw	f14,24(x12)
   13f4c:	4141                	li	x2,16
   13f4e:	4c50                	lw	x12,28(x8)
   13f50:	0020                	addi	x8,x2,8
   13f52:	011c                	addi	x15,x2,128
   13f54:	6e18                	flw	f14,24(x12)
   13f56:	0b00                	addi	x8,x2,400
   13f58:	c502                	sw	x0,136(x2)
   13f5a:	f3ff                	0xf3ff
   13f5c:	3b88                	fld	f10,48(x15)
   13f5e:	454ec05b          	0x454ec05b
   13f62:	4250                	lw	x12,4(x12)
   13f64:	9d5e                	add	x26,x26,x23
   13f66:	fdd8                	fsw	f14,60(x11)
   13f68:	0000                	unimp
   13f6a:	6912                	flw	f18,4(x2)
   13f6c:	4141                	li	x2,16
   13f6e:	4c50                	lw	x12,28(x8)
   13f70:	0020                	addi	x8,x2,8
   13f72:	0105                	addi	x2,x2,1
   13f74:	6712                	flw	f14,4(x2)
   13f76:	0d00                	addi	x8,x2,656
   13f78:	c802                	sw	x0,16(x2)
   13f7a:	b2dd                	j	13960 <raw_data+0x2520>
   13f7c:	0e90                	addi	x12,x2,848
   13f7e:	a222                	fsd	f8,256(x2)
   13f80:	454e                	lw	x10,208(x2)
   13f82:	5350                	lw	x12,36(x14)
   13f84:	9d5e                	add	x26,x26,x23
   13f86:	05d9                	addi	x11,x11,22
   13f88:	0000                	unimp
   13f8a:	c538                	sw	x14,72(x10)
   13f8c:	20495457          	0x20495457
   13f90:	0020                	addi	x8,x2,8
   13f92:	0208                	addi	x10,x2,256
   13f94:	ca38                	sw	x14,80(x12)
   13f96:	0d00                	addi	x8,x2,656
   13f98:	c902                	sw	x0,144(x2)
   13f9a:	24b5073f 454e2b68 	0x454e2b6824b5073f
   13fa2:	4250                	lw	x12,4(x12)
   13fa4:	9d5e                	add	x26,x26,x23
   13fa6:	0ad9                	addi	x21,x21,22
   13fa8:	0000                	unimp
   13faa:	2320                	fld	f8,64(x14)
   13fac:	464e                	lw	x12,208(x2)
   13fae:	584c                	lw	x11,52(x8)
   13fb0:	0020                	addi	x8,x2,8
   13fb2:	0110                	addi	x12,x2,128
   13fb4:	1320                	addi	x8,x2,424
   13fb6:	0900                	addi	x8,x2,144
   13fb8:	c902                	sw	x0,144(x2)
   13fba:	fcf9                	bnez	x9,13f98 <raw_data+0x2b58>
   13fbc:	4044                	lw	x9,4(x8)
   13fbe:	67f1                	lui	x15,0x1c
   13fc0:	53437753          	0x53437753
   13fc4:	9d5e                	add	x26,x26,x23
   13fc6:	13d9                	addi	x7,x7,-10
   13fc8:	0000                	unimp
   13fca:	1d31                	addi	x26,x26,-20
   13fcc:	20585053          	0x20585053
   13fd0:	0020                	addi	x8,x2,8
   13fd2:	010d                	addi	x2,x2,3
   13fd4:	1831                	addi	x16,x16,-20
   13fd6:	0b00                	addi	x8,x2,400
   13fd8:	cc02                	sw	x0,24(x2)
   13fda:	822c                	0x822c
   13fdc:	2b5e                	fld	f22,464(x2)
   13fde:	16a4                	addi	x9,x2,872
   13fe0:	454e                	lw	x10,208(x2)
   13fe2:	4250                	lw	x12,4(x12)
   13fe4:	9d5e                	add	x26,x26,x23
   13fe6:	1bd9                	addi	x23,x23,-10
   13fe8:	0000                	unimp
   13fea:	fd0d                	bnez	x10,13f24 <raw_data+0x2ae4>
   13fec:	20585053          	0x20585053
   13ff0:	0020                	addi	x8,x2,8
   13ff2:	0104                	addi	x9,x2,128
   13ff4:	0a0e                	slli	x20,x20,0x3
   13ff6:	0300                	addi	x8,x2,384
   13ff8:	ce02                	sw	x0,28(x2)
   13ffa:	954a                	add	x10,x10,x18
   13ffc:	681f 5330 454e      	0x454e5330681f
   14002:	9d5e5343          	0x9d5e5343
   14006:	1ed9                	addi	x29,x29,-10
   14008:	0000                	unimp
   1400a:	fc0e                	fsw	f3,56(x2)
   1400c:	20595053          	0x20595053
   14010:	0020                	addi	x8,x2,8
   14012:	010e                	slli	x2,x2,0x3
   14014:	0800030f          	0x800030f
   14018:	ce02                	sw	x0,28(x2)
   1401a:	42d6                	lw	x5,84(x2)
   1401c:	f111                	bnez	x10,13f20 <raw_data+0x2ae0>
   1401e:	454ed6af          	0x454ed6af
   14022:	9d5e5343          	0x9d5e5343
   14026:	23d9                	jal	145ec <raw_data+0x31ac>
   14028:	0000                	unimp
   1402a:	3b26                	fld	f22,104(x2)
   1402c:	2046                	fld	f0,80(x2)
   1402e:	2020                	fld	f8,64(x8)
   14030:	0020                	addi	x8,x2,8
   14032:	021f 2826 0400      	0x4002826021f
   14038:	d002                	sw	x0,32(x2)
   1403a:	6535                	lui	x10,0xd
   1403c:	69ea                	flw	f19,152(x2)
   1403e:	155c                	addi	x15,x2,676
   14040:	454e                	lw	x10,208(x2)
   14042:	4250                	lw	x12,4(x12)
   14044:	9d5e                	add	x26,x26,x23
   14046:	2bd9                	jal	1461c <raw_data+0x31dc>
   14048:	0000                	unimp
   1404a:	2825                	jal	14082 <raw_data+0x2c42>
   1404c:	4d59                	li	x26,22
   1404e:	2020                	fld	f8,64(x8)
   14050:	0020                	addi	x8,x2,8
   14052:	0220                	addi	x8,x2,264
   14054:	3125                	jal	13c7c <raw_data+0x283c>
   14056:	0500                	addi	x8,x2,640
   14058:	d202                	sw	x0,36(x2)
   1405a:	59a4d83f 454ecd59 	0x454ecd5959a4d83f
   14062:	9d5e5343          	0x9d5e5343
   14066:	34d9                	jal	13b2c <raw_data+0x26ec>
   14068:	0000                	unimp
   1406a:	d826                	sw	x9,48(x2)
   1406c:	2046                	fld	f0,80(x2)
   1406e:	2020                	fld	f8,64(x8)
   14070:	0020                	addi	x8,x2,8
   14072:	0116                	slli	x2,x2,0x5
   14074:	d426                	sw	x9,40(x2)
   14076:	0200                	addi	x8,x2,256
   14078:	d302                	sw	x0,164(x2)
   1407a:	7fc4                	flw	f9,60(x15)
   1407c:	e1ee                	fsw	f27,192(x2)
   1407e:	fb5a                	fsw	f22,180(x2)
   14080:	454e                	lw	x10,208(x2)
   14082:	9d5e4243          	0x9d5e4243
   14086:	37d9                	jal	1404c <raw_data+0x2c0c>
   14088:	0000                	unimp
   1408a:	b324                	fsd	f9,96(x14)
   1408c:	474f4f47          	fmsub.q	f30,f30,f20,f8,rmm
   14090:	004c                	addi	x11,x2,4
   14092:	0111                	addi	x2,x2,4
   14094:	c024                	sw	x9,64(x8)
   14096:	0600                	addi	x8,x2,768
   14098:	d502                	sw	x0,168(x2)
   1409a:	5910                	lw	x12,48(x10)
   1409c:	090a                	slli	x18,x18,0x2
   1409e:	5274                	lw	x13,100(x12)
   140a0:	454e                	lw	x10,208(x2)
   140a2:	9d5e4243          	0x9d5e4243
   140a6:	3dd9                	jal	13f7c <raw_data+0x2b3c>
   140a8:	0000                	unimp
   140aa:	20467917          	auipc	x18,0x20467
   140ae:	2020                	fld	f8,64(x8)
   140b0:	0020                	addi	x8,x2,8
   140b2:	021c                	addi	x15,x2,256
   140b4:	05007017          	auipc	x0,0x5007
   140b8:	d702                	sw	x0,172(x2)
   140ba:	75ba                	flw	f11,172(x2)
   140bc:	f17d                	bnez	x10,140a2 <raw_data+0x2c62>
   140be:	4004                	lw	x9,0(x8)
   140c0:	454e                	lw	x10,208(x2)
   140c2:	9d5e5343          	0x9d5e5343
   140c6:	43d9                	li	x7,22
   140c8:	0000                	unimp
   140ca:	2f22                	fld	f30,8(x2)
   140cc:	20595053          	0x20595053
   140d0:	0020                	addi	x8,x2,8
   140d2:	0120                	addi	x8,x2,136
   140d4:	2c22                	fld	f24,8(x2)
   140d6:	0b00                	addi	x8,x2,400
   140d8:	da02                	sw	x0,52(x2)
   140da:	c138                	sw	x14,64(x10)
   140dc:	4105                	li	x2,1
   140de:	454e1a3b          	0x454e1a3b
   140e2:	9d5e4243          	0x9d5e4243
   140e6:	4bd9                	li	x23,22
   140e8:	0000                	unimp
   140ea:	5b26                	lw	x22,104(x2)
   140ec:	464e                	lw	x12,208(x2)
   140ee:	584c                	lw	x11,52(x8)
   140f0:	0020                	addi	x8,x2,8
   140f2:	021d                	addi	x4,x4,7
   140f4:	5526                	lw	x10,104(x2)
   140f6:	0b00                	addi	x8,x2,400
   140f8:	db02                	sw	x0,180(x2)
   140fa:	9bc2                	add	x23,x23,x16
   140fc:	390d                	jal	13d2e <raw_data+0x28ee>
   140fe:	9966                	add	x18,x18,x25
   14100:	454e                	lw	x10,208(x2)
   14102:	9d5e4243          	0x9d5e4243
   14106:	54d9                	li	x9,-10
   14108:	0000                	unimp
   1410a:	53459b1b          	0x53459b1b
   1410e:	2020                	fld	f8,64(x8)
   14110:	0020                	addi	x8,x2,8
   14112:	010a                	slli	x2,x2,0x2
   14114:	0800951b          	0x800951b
   14118:	dc02                	sw	x0,56(x2)
   1411a:	3ef6                	fld	f29,376(x2)
   1411c:	06fc                	addi	x15,x2,844
   1411e:	6cbd                	lui	x25,0xf
   14120:	454e                	lw	x10,208(x2)
   14122:	9d5e5343          	0x9d5e5343
   14126:	59d9                	li	x19,-10
   14128:	0000                	unimp
   1412a:	af14                	fsd	f13,24(x14)
   1412c:	5345                	li	x6,-15
   1412e:	2020                	fld	f8,64(x8)
   14130:	0020                	addi	x8,x2,8
   14132:	0108                	addi	x10,x2,128
   14134:	ad14                	fsd	f13,24(x10)
   14136:	0700                	addi	x8,x2,896
   14138:	de02                	sw	x0,60(x2)
   1413a:	6dd5                	lui	x27,0x15
   1413c:	71a1                	lui	x3,0xfffe8
   1413e:	454ef9fb          	0x454ef9fb
   14142:	5350                	lw	x12,36(x14)
   14144:	9d5e                	add	x26,x26,x23
   14146:	5fd9                	li	x31,-10
   14148:	0000                	unimp
   1414a:	730e                	flw	f6,224(x2)
   1414c:	464e                	lw	x12,208(x2)
   1414e:	584c                	lw	x11,52(x8)
   14150:	0020                	addi	x8,x2,8
   14152:	0106                	slli	x2,x2,0x1
   14154:	680e                	flw	f16,192(x2)
   14156:	0700                	addi	x8,x2,896
   14158:	e102                	fsw	f0,128(x2)
   1415a:	fba0                	fsw	f8,112(x15)
   1415c:	7fcbaeb7          	lui	x29,0x7fcba
   14160:	454e                	lw	x10,208(x2)
   14162:	9d5e5343          	0x9d5e5343
   14166:	65d9                	lui	x11,0x16
   14168:	0000                	unimp
   1416a:	742c                	flw	f11,104(x8)
   1416c:	5345                	li	x6,-15
   1416e:	2020                	fld	f8,64(x8)
   14170:	0020                	addi	x8,x2,8
   14172:	021f 632c 0200      	0x200632c021f
   14178:	e202                	fsw	f0,4(x2)
   1417a:	a32a                	fsd	f10,384(x2)
   1417c:	315933bb          	0x315933bb
   14180:	454e                	lw	x10,208(x2)
   14182:	9d5e4243          	0x9d5e4243
   14186:	6fd9                	lui	x31,0x16
   14188:	0000                	unimp
   1418a:	a42d                	j	143b4 <raw_data+0x2f74>
   1418c:	20495457          	0x20495457
   14190:	0020                	addi	x8,x2,8
   14192:	0114                	addi	x13,x2,128
   14194:	922d                	srli	x12,x12,0x2b
   14196:	0400                	addi	x8,x2,512
   14198:	e502                	fsw	f0,136(x2)
   1419a:	61637337          	lui	x6,0x61637
   1419e:	d321                	beqz	x14,140de <raw_data+0x2c9e>
   141a0:	454e                	lw	x10,208(x2)
   141a2:	5350                	lw	x12,36(x14)
   141a4:	9d5e                	add	x26,x26,x23
   141a6:	72d9                	lui	x5,0xffff6
   141a8:	0000                	unimp
   141aa:	2046532f          	0x2046532f
   141ae:	2020                	fld	f8,64(x8)
   141b0:	0020                	addi	x8,x2,8
   141b2:	0205                	addi	x4,x4,1
   141b4:	0400442f          	0x400442f
   141b8:	e602                	fsw	f0,12(x2)
   141ba:	2518                	fld	f14,8(x10)
   141bc:	55ff                	0x55ff
   141be:	454e0cef          	jal	x25,f4612 <__BSS_END__+0xde6ba>
   141c2:	9d5e5343          	0x9d5e5343
   141c6:	76d9                	lui	x13,0xffff6
   141c8:	0000                	unimp
   141ca:	9221                	srli	x12,x12,0x28
   141cc:	20585053          	0x20585053
   141d0:	0020                	addi	x8,x2,8
   141d2:	9921021b          	0x9921021b
   141d6:	0d00                	addi	x8,x2,656
   141d8:	e802                	fsw	f0,16(x2)
   141da:	993e                	add	x18,x18,x15
   141dc:	a7fd                	j	149ca <raw_data+0x358a>
   141de:	96d6                	add	x13,x13,x21
   141e0:	454e                	lw	x10,208(x2)
   141e2:	4250                	lw	x12,4(x12)
   141e4:	9d5e                	add	x26,x26,x23
   141e6:	7fd9                	lui	x31,0xffff6
   141e8:	0000                	unimp
   141ea:	1326                	slli	x6,x6,0x29
   141ec:	20595053          	0x20595053
   141f0:	0020                	addi	x8,x2,8
   141f2:	0104                	addi	x9,x2,128
   141f4:	0d26                	slli	x26,x26,0x9
   141f6:	0b00                	addi	x8,x2,400
   141f8:	e902                	fsw	f0,144(x2)
   141fa:	dc64                	sw	x9,124(x8)
   141fc:	8574                	0x8574
   141fe:	b37f                	0xb37f
   14200:	454e                	lw	x10,208(x2)
   14202:	9d5e4243          	0x9d5e4243
   14206:	91d9                	srli	x11,x11,0x36
   14208:	0000                	unimp
   1420a:	761e                	flw	f12,228(x2)
   1420c:	20595053          	0x20595053
   14210:	0020                	addi	x8,x2,8
   14212:	0210                	addi	x12,x2,256
   14214:	6a1e                	flw	f20,196(x2)
   14216:	0b00                	addi	x8,x2,400
   14218:	ed02                	fsw	f0,152(x2)
   1421a:	90ca                	add	x1,x1,x18
   1421c:	eb7c                	fsw	f15,84(x14)
   1421e:	2638                	fld	f14,72(x12)
   14220:	454e                	lw	x10,208(x2)
   14222:	5350                	lw	x12,36(x14)
   14224:	9d5e                	add	x26,x26,x23
   14226:	9ad9                	andi	x13,x13,-10
   14228:	0000                	unimp
   1422a:	5320                	lw	x8,96(x14)
   1422c:	5345                	li	x6,-15
   1422e:	2020                	fld	f8,64(x8)
   14230:	0020                	addi	x8,x2,8
   14232:	020a                	slli	x4,x4,0x2
   14234:	4a20                	lw	x8,80(x12)
   14236:	0700                	addi	x8,x2,896
   14238:	f102                	fsw	f0,160(x2)
   1423a:	6244                	flw	f9,4(x12)
   1423c:	7f40                	flw	f8,60(x14)
   1423e:	454ebddb          	0x454ebddb
   14242:	9d5e5343          	0x9d5e5343
   14246:	a2d9                	j	1440c <raw_data+0x2fcc>
   14248:	0000                	unimp
   1424a:	2e29                	jal	14564 <raw_data+0x3124>
   1424c:	464e                	lw	x12,208(x2)
   1424e:	584c                	lw	x11,52(x8)
   14250:	0020                	addi	x8,x2,8
   14252:	0205                	addi	x4,x4,1
   14254:	3b29                	jal	13f6e <raw_data+0x2b2e>
   14256:	0700                	addi	x8,x2,896
   14258:	f202                	fsw	f0,36(x2)
   1425a:	c652                	sw	x20,12(x2)
   1425c:	5df1                	li	x27,-4
   1425e:	c430                	sw	x12,72(x8)
   14260:	454e                	lw	x10,208(x2)
   14262:	9d5e5343          	0x9d5e5343
   14266:	a9d9                	j	1473c <raw_data+0x32fc>
   14268:	0000                	unimp
   1426a:	e20c                	fsw	f11,0(x12)
   1426c:	2046                	fld	f0,80(x2)
   1426e:	2020                	fld	f8,64(x8)
   14270:	0020                	addi	x8,x2,8
   14272:	020c                	addi	x11,x2,256
   14274:	f30c                	fsw	f11,32(x14)
   14276:	0500                	addi	x8,x2,640
   14278:	f202                	fsw	f0,36(x2)
   1427a:	a6e0                	fsd	f8,200(x13)
   1427c:	503e                	0x503e
   1427e:	0b6c                	addi	x11,x2,412
   14280:	454e                	lw	x10,208(x2)
   14282:	9d5e5343          	0x9d5e5343
   14286:	b5d9                	j	1414c <raw_data+0x2d0c>
   14288:	0000                	unimp
   1428a:	ce01                	beqz	x12,142a2 <raw_data+0x2e62>
   1428c:	464e                	lw	x12,208(x2)
   1428e:	584c                	lw	x11,52(x8)
   14290:	0020                	addi	x8,x2,8
   14292:	0205                	addi	x4,x4,1
   14294:	cb01                	beqz	x14,142a4 <raw_data+0x2e64>
   14296:	0d00                	addi	x8,x2,656
   14298:	f802                	fsw	f0,48(x2)
   1429a:	bbae                	fsd	f11,496(x2)
   1429c:	56a1                	li	x13,-24
   1429e:	6594                	flw	f13,8(x11)
   142a0:	454e                	lw	x10,208(x2)
   142a2:	4250                	lw	x12,4(x12)
   142a4:	9d5e                	add	x26,x26,x23
   142a6:	bed9                	j	13e7c <raw_data+0x2a3c>
   142a8:	0000                	unimp
   142aa:	d930                	sw	x12,112(x10)
   142ac:	20595053          	0x20595053
   142b0:	0020                	addi	x8,x2,8
   142b2:	020a                	slli	x4,x4,0x2
   142b4:	e130                	fsw	f12,64(x10)
   142b6:	0500                	addi	x8,x2,640
   142b8:	f902                	fsw	f0,176(x2)
   142ba:	0d8e                	slli	x27,x27,0x3
   142bc:	7390996b          	0x7390996b
   142c0:	6541                	lui	x10,0x10
   142c2:	4250                	lw	x12,4(x12)
   142c4:	9d5e                	add	x26,x26,x23
   142c6:	c2d9                	beqz	x13,1434c <raw_data+0x2f0c>
   142c8:	0000                	unimp
   142ca:	d732                	sw	x12,172(x2)
   142cc:	5345                	li	x6,-15
   142ce:	2020                	fld	f8,64(x8)
   142d0:	0020                	addi	x8,x2,8
   142d2:	0111                	addi	x2,x2,4
   142d4:	e232                	fsw	f12,4(x2)
   142d6:	0600                	addi	x8,x2,768
   142d8:	fb02                	fsw	f0,180(x2)
   142da:	39d1                	jal	13fae <raw_data+0x2b6e>
   142dc:	26a9                	jal	14626 <raw_data+0x31e6>
   142de:	56c1                	li	x13,-16
   142e0:	454e                	lw	x10,208(x2)
   142e2:	9d5e5343          	0x9d5e5343
   142e6:	ccd9                	beqz	x9,14384 <raw_data+0x2f44>
   142e8:	0000                	unimp
   142ea:	4008                	lw	x10,0(x8)
   142ec:	464e                	lw	x12,208(x2)
   142ee:	584c                	lw	x11,52(x8)
   142f0:	0020                	addi	x8,x2,8
   142f2:	020c                	addi	x11,x2,256
   142f4:	4308                	lw	x10,0(x14)
   142f6:	0800                	addi	x8,x2,16
   142f8:	fd02                	fsw	f0,184(x2)
   142fa:	6da0                	flw	f8,88(x11)
   142fc:	76bc                	flw	f15,104(x13)
   142fe:	454ef32f          	0x454ef32f
   14302:	5350                	lw	x12,36(x14)
   14304:	9d5e                	add	x26,x26,x23
   14306:	d4d9                	beqz	x9,14294 <raw_data+0x2e54>
   14308:	0000                	unimp
   1430a:	5053080b          	0x5053080b
   1430e:	2059                	jal	14394 <raw_data+0x2f54>
   14310:	0020                	addi	x8,x2,8
   14312:	021a                	slli	x4,x4,0x6
   14314:	f70a                	fsw	f2,172(x2)
   14316:	0a00                	addi	x8,x2,272
   14318:	fe02                	fsw	f0,60(x2)
   1431a:	61d171bb          	0x61d171bb
   1431e:	032c                	addi	x11,x2,392
   14320:	454e                	lw	x10,208(x2)
   14322:	9d5e4243          	0x9d5e4243
   14326:	dad9                	beqz	x13,142bc <raw_data+0x2e7c>
   14328:	0000                	unimp
   1432a:	0b36                	slli	x22,x22,0xd
   1432c:	4d59                	li	x26,22
   1432e:	2020                	fld	f8,64(x8)
   14330:	0020                	addi	x8,x2,8
   14332:	021a                	slli	x4,x4,0x6
   14334:	0336                	slli	x6,x6,0xd
   14336:	0900                	addi	x8,x2,144
   14338:	8c9b0103          	lb	x2,-1847(x22) # 48c9 <_start-0xb7b7>
   1433c:	047f                	0x47f
   1433e:	6210                	flw	f12,0(x12)
   14340:	454e                	lw	x10,208(x2)
   14342:	9d5e4243          	0x9d5e4243
   14346:	e0d9                	bnez	x9,143cc <raw_data+0x2f8c>
   14348:	0000                	unimp
   1434a:	e512                	fsw	f4,136(x2)
   1434c:	4d59                	li	x26,22
   1434e:	2020                	fld	f8,64(x8)
   14350:	0020                	addi	x8,x2,8
   14352:	0121                	addi	x2,x2,8
   14354:	f112                	fsw	f4,160(x2)
   14356:	0700                	addi	x8,x2,896
   14358:	ba710403          	lb	x8,-1113(x2) # 1f2b3999 <__BSS_END__+0x1f29da41>
   1435c:	63c68267          	jalr	x4,1596(x13) # ffff663c <__BSS_END__+0xfffe06e4>
   14360:	454e                	lw	x10,208(x2)
   14362:	5350                	lw	x12,36(x14)
   14364:	9d5e                	add	x26,x26,x23
   14366:	ead9                	bnez	x13,143fc <raw_data+0x2fbc>
   14368:	0000                	unimp
   1436a:	f12e                	fsw	f11,160(x2)
   1436c:	4141                	li	x2,16
   1436e:	4c50                	lw	x12,28(x8)
   14370:	0020                	addi	x8,x2,8
   14372:	021c                	addi	x15,x2,256
   14374:	f22e                	fsw	f11,36(x2)
   14376:	0a00                	addi	x8,x2,272
   14378:	30360703          	lb	x14,771(x12) # 4020a77 <__BSS_END__+0x400ab1f>
   1437c:	172b7137          	lui	x2,0x172b7
   14380:	454e                	lw	x10,208(x2)
   14382:	5350                	lw	x12,36(x14)
   14384:	9d5e                	add	x26,x26,x23
   14386:	f3d9                	bnez	x15,1430c <raw_data+0x2ecc>
   14388:	0000                	unimp
   1438a:	740e                	flw	f8,224(x2)
   1438c:	464e                	lw	x12,208(x2)
   1438e:	584c                	lw	x11,52(x8)
   14390:	0020                	addi	x8,x2,8
   14392:	0208                	addi	x10,x2,256
   14394:	740e                	flw	f8,224(x2)
   14396:	0300                	addi	x8,x2,384
   14398:	43920803          	lb	x16,1081(x4) # 2d1e3d8b <__BSS_END__+0x2d1cde33>
   1439c:	51d5                	li	x3,-11
   1439e:	454e946b          	0x454e946b
   143a2:	9d5e4243          	0x9d5e4243
   143a6:	f7d9                	bnez	x15,14334 <raw_data+0x2ef4>
   143a8:	0000                	unimp
   143aa:	a811                	j	143be <raw_data+0x2f7e>
   143ac:	20595053          	0x20595053
   143b0:	0020                	addi	x8,x2,8
   143b2:	0109                	addi	x2,x2,2
   143b4:	b011                	j	13bb8 <raw_data+0x2778>
   143b6:	0c00                	addi	x8,x2,528
   143b8:	ea680a03          	lb	x20,-346(x16) # ffff2ea6 <__BSS_END__+0xfffdcf4e>
   143bc:	7ef1                	lui	x29,0xffffc
   143be:	bc78                	fsd	f14,248(x8)
   143c0:	6749                	lui	x14,0x12
   143c2:	5350                	lw	x12,36(x14)
   143c4:	9d5e                	add	x26,x26,x23
   143c6:	fcd9                	bnez	x9,14364 <raw_data+0x2f24>
   143c8:	0000                	unimp
   143ca:	411e                	lw	x2,196(x2)
   143cc:	474f4f47          	fmsub.q	f30,f30,f20,f8,rmm
   143d0:	004c                	addi	x11,x2,4
   143d2:	0220                	addi	x8,x2,264
   143d4:	2f1e                	fld	f30,448(x2)
   143d6:	0300                	addi	x8,x2,384
   143d8:	477c0d03          	lb	x26,1143(x24) # fffe8477 <__BSS_END__+0xfffd251f>
   143dc:	0430                	addi	x12,x2,520
   143de:	60cc                	flw	f11,4(x9)
   143e0:	454e                	lw	x10,208(x2)
   143e2:	5350                	lw	x12,36(x14)
   143e4:	9d5e                	add	x26,x26,x23
   143e6:	04da                	slli	x9,x9,0x16
   143e8:	0000                	unimp
   143ea:	a229                	j	144f4 <raw_data+0x30b4>
   143ec:	464e                	lw	x12,208(x2)
   143ee:	584c                	lw	x11,52(x8)
   143f0:	0020                	addi	x8,x2,8
   143f2:	a829020f          	0xa829020f
   143f6:	0300                	addi	x8,x2,384
   143f8:	eca70e03          	lb	x28,-310(x14) # 11eca <raw_data+0xa8a>
   143fc:	a539                	j	14a0a <raw_data+0x35ca>
   143fe:	04aa                	slli	x9,x9,0xa
   14400:	454e                	lw	x10,208(x2)
   14402:	5350                	lw	x12,36(x14)
   14404:	9d5e                	add	x26,x26,x23
   14406:	0ada                	slli	x21,x21,0x16
   14408:	0000                	unimp
   1440a:	cd1c                	sw	x15,24(x10)
   1440c:	5345                	li	x6,-15
   1440e:	2020                	fld	f8,64(x8)
   14410:	0020                	addi	x8,x2,8
   14412:	0221                	addi	x4,x4,8
   14414:	c61c                	sw	x15,8(x12)
   14416:	0800                	addi	x8,x2,16
   14418:	fc551003          	lh	x0,-59(x10) # ffc5 <_start-0xbb>
   1441c:	9322                	add	x6,x6,x8
   1441e:	24fa                	fld	f9,408(x2)
   14420:	454e                	lw	x10,208(x2)
   14422:	9d5e4243          	0x9d5e4243
   14426:	0dda                	slli	x27,x27,0x16
   14428:	0000                	unimp
   1442a:	070a                	slli	x14,x14,0x2
   1442c:	20495457          	0x20495457
   14430:	0020                	addi	x8,x2,8
   14432:	ff090117          	auipc	x2,0xff090
   14436:	0d00                	addi	x8,x2,656
   14438:	2cbd1203          	lh	x4,715(x26)
   1443c:	1c0a                	slli	x24,x24,0x22
   1443e:	8e4c                	0x8e4c
   14440:	454e                	lw	x10,208(x2)
   14442:	4250                	lw	x12,4(x12)
   14444:	9d5e                	add	x26,x26,x23
   14446:	16da                	slli	x13,x13,0x36
   14448:	0000                	unimp
   1444a:	6c2d                	lui	x24,0xb
   1444c:	20495457          	0x20495457
   14450:	0020                	addi	x8,x2,8
   14452:	0208                	addi	x10,x2,256
   14454:	722d                	lui	x4,0xfffeb
   14456:	0300                	addi	x8,x2,384
   14458:	850f1603          	lh	x12,-1968(x30)
   1445c:	0286                	slli	x5,x5,0x1
   1445e:	c446                	sw	x17,8(x2)
   14460:	454e                	lw	x10,208(x2)
   14462:	9d5e5343          	0x9d5e5343
   14466:	20da                	fld	f1,400(x2)
   14468:	0000                	unimp
   1446a:	0914                	addi	x13,x2,144
   1446c:	4d59                	li	x26,22
   1446e:	2020                	fld	f8,64(x8)
   14470:	0020                	addi	x8,x2,8
   14472:	f513021b          	0xf513021b
   14476:	0500                	addi	x8,x2,640
   14478:	7fc91603          	lh	x12,2044(x18) # 2047b8a6 <__BSS_END__+0x2046594e>
   1447c:	057f                	0x57f
   1447e:	faff                	0xfaff
   14480:	454e                	lw	x10,208(x2)
   14482:	9d5e5343          	0x9d5e5343
   14486:	33da                	fld	f7,432(x2)
   14488:	0000                	unimp
   1448a:	2e15                	jal	147be <raw_data+0x337e>
   1448c:	2046                	fld	f0,80(x2)
   1448e:	2020                	fld	f8,64(x8)
   14490:	0020                	addi	x8,x2,8
   14492:	011a                	slli	x2,x2,0x6
   14494:	3215                	jal	13db8 <raw_data+0x2978>
   14496:	0600                	addi	x8,x2,768
   14498:	674e1903          	lh	x18,1652(x28)
   1449c:	f9e5                	bnez	x11,1448c <raw_data+0x304c>
   1449e:	87e9                	srai	x15,x15,0x1a
   144a0:	454e                	lw	x10,208(x2)
   144a2:	9d5e5343          	0x9d5e5343
   144a6:	38da                	fld	f17,432(x2)
   144a8:	0000                	unimp
   144aa:	2728                	fld	f10,72(x14)
   144ac:	20595053          	0x20595053
   144b0:	0020                	addi	x8,x2,8
   144b2:	0115                	addi	x2,x2,5
   144b4:	1728                	addi	x10,x2,936
   144b6:	0a00                	addi	x8,x2,272
   144b8:	802e1c03          	lh	x24,-2046(x28)
   144bc:	0f06                	slli	x30,x30,0x1
   144be:	7879                	lui	x16,0xffffe
   144c0:	454e                	lw	x10,208(x2)
   144c2:	9d5e5343          	0x9d5e5343
   144c6:	3fda                	fld	f31,432(x2)
   144c8:	0000                	unimp
   144ca:	7d18                	flw	f14,56(x10)
   144cc:	4141                	li	x2,16
   144ce:	4c50                	lw	x12,28(x8)
   144d0:	0020                	addi	x8,x2,8
   144d2:	0105                	addi	x2,x2,1
   144d4:	8418                	0x8418
   144d6:	0300                	addi	x8,x2,384
   144d8:	009c1c03          	lh	x24,9(x24) # b009 <_start-0x5077>
   144dc:	a609                	j	147de <raw_data+0x339e>
   144de:	454e5ee7          	0x454e5ee7
   144e2:	5350                	lw	x12,36(x14)
   144e4:	9d5e                	add	x26,x26,x23
   144e6:	43da                	lw	x7,148(x2)
   144e8:	0000                	unimp
   144ea:	f901                	bnez	x10,143fa <raw_data+0x2fba>
   144ec:	20595053          	0x20595053
   144f0:	0020                	addi	x8,x2,8
   144f2:	0210                	addi	x12,x2,256
   144f4:	e801                	bnez	x8,14504 <raw_data+0x30c4>
   144f6:	0600                	addi	x8,x2,768
   144f8:	4cc51f03          	lh	x30,1228(x10)
   144fc:	a531                	j	14b08 <raw_data+0x36c8>
   144fe:	8635                	srai	x12,x12,0xd
   14500:	454e                	lw	x10,208(x2)
   14502:	4250                	lw	x12,4(x12)
   14504:	9d5e                	add	x26,x26,x23
   14506:	49da                	lw	x19,148(x2)
   14508:	0000                	unimp
   1450a:	e52c                	fsw	f11,72(x10)
   1450c:	4d59                	li	x26,22
   1450e:	2020                	fld	f8,64(x8)
   14510:	0020                	addi	x8,x2,8
   14512:	0115                	addi	x2,x2,5
   14514:	ef2c                	fsw	f11,88(x14)
   14516:	0600                	addi	x8,x2,768
   14518:	cad42103          	lw	x2,-851(x8) # 601efe1 <__BSS_END__+0x6009089>
   1451c:	101d                	c.nop	-25
   1451e:	c428                	sw	x10,72(x8)
   14520:	454e                	lw	x10,208(x2)
   14522:	4250                	lw	x12,4(x12)
   14524:	9d5e                	add	x26,x26,x23
   14526:	4dda                	lw	x27,148(x2)
   14528:	0000                	unimp
   1452a:	53456a33          	0x53456a33
   1452e:	2020                	fld	f8,64(x8)
   14530:	0020                	addi	x8,x2,8
   14532:	62330203          	lb	x4,1571(x6) # 61637623 <__BSS_END__+0x616216cb>
   14536:	0400                	addi	x8,x2,512
   14538:	73602403          	lw	x8,1846(x0) # 736 <_start-0xf94a>
   1453c:	be89                	j	1408e <raw_data+0x2c4e>
   1453e:	386d                	jal	13df8 <raw_data+0x29b8>
   14540:	454e                	lw	x10,208(x2)
   14542:	9d5e4243          	0x9d5e4243
   14546:	50da                	lw	x1,180(x2)
   14548:	0000                	unimp
   1454a:	4206                	lw	x4,64(x2)
   1454c:	4141                	li	x2,16
   1454e:	4c50                	lw	x12,28(x8)
   14550:	0020                	addi	x8,x2,8
   14552:	0211                	addi	x4,x4,4
   14554:	4906                	lw	x18,64(x2)
   14556:	0c00                	addi	x8,x2,528
   14558:	850c2703          	lw	x14,-1968(x24)
   1455c:	9533533b          	0x9533533b
   14560:	454e                	lw	x10,208(x2)
   14562:	9d5e5343          	0x9d5e5343
   14566:	62da                	flw	f5,148(x2)
   14568:	0000                	unimp
   1456a:	980a                	add	x16,x16,x2
   1456c:	20595053          	0x20595053
   14570:	0020                	addi	x8,x2,8
   14572:	011d                	addi	x2,x2,7
   14574:	8b0a                	mv	x22,x2
   14576:	0500                	addi	x8,x2,640
   14578:	dd7f2a03          	lw	x20,-553(x30)
   1457c:	e0ea                	fsw	f26,64(x2)
   1457e:	ca8e                	sw	x3,84(x2)
   14580:	454e                	lw	x10,208(x2)
   14582:	4250                	lw	x12,4(x12)
   14584:	9d5e                	add	x26,x26,x23
   14586:	69da                	flw	f19,148(x2)
   14588:	0000                	unimp
   1458a:	232d                	jal	14ab4 <raw_data+0x3674>
   1458c:	4141                	li	x2,16
   1458e:	4c50                	lw	x12,28(x8)
   14590:	0020                	addi	x8,x2,8
   14592:	020c                	addi	x11,x2,256
   14594:	2e2d                	jal	148ce <raw_data+0x348e>
   14596:	0400                	addi	x8,x2,512
   14598:	22ee2d03          	lw	x26,558(x28)
   1459c:	dec3e827          	0xdec3e827
   145a0:	454e                	lw	x10,208(x2)
   145a2:	5350                	lw	x12,36(x14)
   145a4:	9d5e                	add	x26,x26,x23
   145a6:	73da                	flw	f7,180(x2)
   145a8:	0000                	unimp
   145aa:	6d2e                	flw	f26,200(x2)
   145ac:	4d59                	li	x26,22
   145ae:	2020                	fld	f8,64(x8)
   145b0:	0020                	addi	x8,x2,8
   145b2:	0110                	addi	x12,x2,128
   145b4:	6d2e                	flw	f26,200(x2)
   145b6:	0b00                	addi	x8,x2,400
   145b8:	3e7b3403          	0x3e7b3403
   145bc:	1550                	addi	x12,x2,676
   145be:	454e902f          	0x454e902f
   145c2:	9d5e4243          	0x9d5e4243
   145c6:	7bda                	flw	f23,180(x2)
   145c8:	0000                	unimp
   145ca:	ef14                	fsw	f13,24(x14)
   145cc:	474f4f47          	fmsub.q	f30,f30,f20,f8,rmm
   145d0:	004c                	addi	x11,x2,4
   145d2:	e3140203          	lb	x4,-463(x8)
   145d6:	0400                	addi	x8,x2,512
   145d8:	9a6e3603          	0x9a6e3603
   145dc:	c81a                	sw	x6,16(x2)
   145de:	3f04                	fld	f9,56(x14)
   145e0:	454e                	lw	x10,208(x2)
   145e2:	9d5e5343          	0x9d5e5343
   145e6:	7eda                	flw	f29,180(x2)
   145e8:	0000                	unimp
   145ea:	e001                	bnez	x8,145ea <raw_data+0x31aa>
   145ec:	2046                	fld	f0,80(x2)
   145ee:	2020                	fld	f8,64(x8)
   145f0:	0020                	addi	x8,x2,8
   145f2:	0206                	slli	x4,x4,0x1
   145f4:	e601                	bnez	x12,145fc <raw_data+0x31bc>
   145f6:	0d00                	addi	x8,x2,656
   145f8:	ea133703          	0xea133703
   145fc:	b0be                	fsd	f15,96(x2)
   145fe:	9260                	0x9260
   14600:	454e                	lw	x10,208(x2)
   14602:	4250                	lw	x12,4(x12)
   14604:	9d5e                	add	x26,x26,x23
   14606:	83da                	mv	x7,x22
   14608:	0000                	unimp
   1460a:	a305                	j	14b2a <raw_data+0x36ea>
   1460c:	20595053          	0x20595053
   14610:	0020                	addi	x8,x2,8
   14612:	9f05010f          	0x9f05010f
   14616:	0200                	addi	x8,x2,256
   14618:	41c73903          	0x41c73903
   1461c:	131a                	slli	x6,x6,0x26
   1461e:	2a72                	fld	f20,280(x2)
   14620:	454e                	lw	x10,208(x2)
   14622:	4250                	lw	x12,4(x12)
   14624:	9d5e                	add	x26,x26,x23
   14626:	86da                	mv	x13,x22
   14628:	0000                	unimp
   1462a:	3714                	fld	f13,40(x14)
   1462c:	4d59                	li	x26,22
   1462e:	2020                	fld	f8,64(x8)
   14630:	0020                	addi	x8,x2,8
   14632:	0118                	addi	x14,x2,128
   14634:	2e14                	fld	f13,24(x12)
   14636:	0800                	addi	x8,x2,16
   14638:	884f3c03          	0x884f3c03
   1463c:	0479                	addi	x8,x8,30
   1463e:	26da                	fld	f13,400(x2)
   14640:	454e                	lw	x10,208(x2)
   14642:	5350                	lw	x12,36(x14)
   14644:	9d5e                	add	x26,x26,x23
   14646:	8fda                	mv	x31,x22
   14648:	0000                	unimp
   1464a:	0410                	addi	x12,x2,512
   1464c:	4d59                	li	x26,22
   1464e:	2020                	fld	f8,64(x8)
   14650:	0020                	addi	x8,x2,8
   14652:	0115                	addi	x2,x2,5
   14654:	0500ff0f          	0x500ff0f
   14658:	50a43f03          	0x50a43f03
   1465c:	1140                	addi	x8,x2,164
   1465e:	24c5                	jal	1493e <raw_data+0x34fe>
   14660:	454e                	lw	x10,208(x2)
   14662:	4250                	lw	x12,4(x12)
   14664:	9d5e                	add	x26,x26,x23
   14666:	97da                	add	x15,x15,x22
   14668:	0000                	unimp
   1466a:	1a21                	addi	x20,x20,-24
   1466c:	464e                	lw	x12,208(x2)
   1466e:	584c                	lw	x11,52(x8)
   14670:	0020                	addi	x8,x2,8
   14672:	0120                	addi	x8,x2,136
   14674:	1c21                	addi	x24,x24,-24
   14676:	0300                	addi	x8,x2,384
   14678:	7b4b4103          	lbu	x2,1972(x22)
   1467c:	3168                	fld	f10,224(x10)
   1467e:	f5e2                	fsw	f24,232(x2)
   14680:	454e                	lw	x10,208(x2)
   14682:	5350                	lw	x12,36(x14)
   14684:	9d5e                	add	x26,x26,x23
   14686:	a1da                	fsd	f22,192(x2)
   14688:	0000                	unimp
   1468a:	0209                	addi	x4,x4,2
   1468c:	464e                	lw	x12,208(x2)
   1468e:	584c                	lw	x11,52(x8)
   14690:	0020                	addi	x8,x2,8
   14692:	0118                	addi	x14,x2,128
   14694:	0f09                	addi	x30,x30,2
   14696:	0200                	addi	x8,x2,256
   14698:	33a14403          	lbu	x8,826(x2) # ff0a476c <__BSS_END__+0xff08e814>
   1469c:	f06c9ca7          	0xf06c9ca7
   146a0:	454e                	lw	x10,208(x2)
   146a2:	9d5e4243          	0x9d5e4243
   146a6:	a7da                	fsd	f22,456(x2)
   146a8:	0000                	unimp
   146aa:	2810                	fld	f12,16(x8)
   146ac:	20585053          	0x20585053
   146b0:	0020                	addi	x8,x2,8
   146b2:	021d                	addi	x4,x4,7
   146b4:	3010                	fld	f12,32(x8)
   146b6:	0400                	addi	x8,x2,512
   146b8:	ed294503          	lbu	x10,-302(x18)
   146bc:	910a                	add	x2,x2,x2
   146be:	4321                	li	x6,8
   146c0:	454e                	lw	x10,208(x2)
   146c2:	9d5e5343          	0x9d5e5343
   146c6:	b1da                	fsd	f22,224(x2)
   146c8:	0000                	unimp
   146ca:	f410                	fsw	f12,40(x8)
   146cc:	5345                	li	x6,-15
   146ce:	2020                	fld	f8,64(x8)
   146d0:	0020                	addi	x8,x2,8
   146d2:	0205                	addi	x4,x4,1
   146d4:	f810                	fsw	f12,48(x8)
   146d6:	0b00                	addi	x8,x2,400
   146d8:	4f414803          	lbu	x16,1268(x2)
   146dc:	e23d                	bnez	x12,14742 <raw_data+0x3302>
   146de:	402d                	c.li	x0,11
   146e0:	454e                	lw	x10,208(x2)
   146e2:	9d5e4243          	0x9d5e4243
   146e6:	b9da                	fsd	f22,240(x2)
   146e8:	0000                	unimp
   146ea:	41416e1b          	0x41416e1b
   146ee:	4c50                	lw	x12,28(x8)
   146f0:	0020                	addi	x8,x2,8
   146f2:	0105                	addi	x2,x2,1
   146f4:	0700791b          	0x700791b
   146f8:	2b3f4a03          	lbu	x20,691(x30)
   146fc:	a2a1                	j	14844 <raw_data+0x3404>
   146fe:	454ed107          	0x454ed107
   14702:	9d5e5343          	0x9d5e5343
   14706:	cbda                	sw	x22,212(x2)
   14708:	0000                	unimp
   1470a:	8f18                	0x8f18
   1470c:	2046                	fld	f0,80(x2)
   1470e:	2020                	fld	f8,64(x8)
   14710:	0020                	addi	x8,x2,8
   14712:	0116                	slli	x2,x2,0x5
   14714:	9d18                	0x9d18
   14716:	0600                	addi	x8,x2,768
   14718:	d44c4d03          	lbu	x26,-700(x24)
   1471c:	d6a0                	sw	x8,104(x13)
   1471e:	2a74                	fld	f13,208(x12)
   14720:	454e                	lw	x10,208(x2)
   14722:	9d5e4243          	0x9d5e4243
   14726:	d8da                	sw	x22,112(x2)
   14728:	0000                	unimp
   1472a:	8904                	0x8904
   1472c:	5345                	li	x6,-15
   1472e:	2020                	fld	f8,64(x8)
   14730:	0020                	addi	x8,x2,8
   14732:	97040207          	0x97040207
   14736:	0700                	addi	x8,x2,896
   14738:	82e64f03          	lbu	x30,-2002(x12)
   1473c:	fe8f30fb          	0xfe8f30fb
   14740:	454e                	lw	x10,208(x2)
   14742:	4250                	lw	x12,4(x12)
   14744:	9d5e                	add	x26,x26,x23
   14746:	e1da                	fsw	f22,192(x2)
   14748:	0000                	unimp
   1474a:	b402                	fsd	f0,40(x2)
   1474c:	2046                	fld	f0,80(x2)
   1474e:	2020                	fld	f8,64(x8)
   14750:	0020                	addi	x8,x2,8
   14752:	0215                	addi	x4,x4,5
   14754:	c502                	sw	x0,136(x2)
   14756:	0200                	addi	x8,x2,256
   14758:	c28a5203          	lhu	x4,-984(x20) # fffedc28 <__BSS_END__+0xfffd7cd0>
   1475c:	8ad8                	0x8ad8
   1475e:	22ce                	fld	f5,208(x2)
   14760:	454e                	lw	x10,208(x2)
   14762:	5350                	lw	x12,36(x14)
   14764:	9d5e                	add	x26,x26,x23
   14766:	e6da                	fsw	f22,76(x2)
   14768:	0000                	unimp
   1476a:	5345dd2b          	0x5345dd2b
   1476e:	2020                	fld	f8,64(x8)
   14770:	0020                	addi	x8,x2,8
   14772:	ca2b011b          	0xca2b011b
   14776:	0300                	addi	x8,x2,384
   14778:	73005303          	lhu	x6,1840(x0) # 730 <_start-0xf950>
   1477c:	62c9                	lui	x5,0x12
   1477e:	8a99                	andi	x13,x13,6
   14780:	454e                	lw	x10,208(x2)
   14782:	4250                	lw	x12,4(x12)
   14784:	9d5e                	add	x26,x26,x23
   14786:	eada                	fsw	f22,84(x2)
   14788:	0000                	unimp
   1478a:	b72c                	fsd	f11,104(x14)
   1478c:	20595053          	0x20595053
   14790:	0020                	addi	x8,x2,8
   14792:	011c                	addi	x15,x2,128
   14794:	c72c                	sw	x11,72(x14)
   14796:	0700                	addi	x8,x2,896
   14798:	dbd85403          	lhu	x8,-579(x16) # ffffddbd <__BSS_END__+0xfffe7e65>
   1479c:	adbc                	fsd	f15,88(x11)
   1479e:	f339                	bnez	x14,146e4 <raw_data+0x32a4>
   147a0:	454e                	lw	x10,208(x2)
   147a2:	5350                	lw	x12,36(x14)
   147a4:	9d5e                	add	x26,x26,x23
   147a6:	f1da                	fsw	f22,224(x2)
   147a8:	0000                	unimp
   147aa:	c124                	sw	x9,64(x10)
   147ac:	20585053          	0x20585053
   147b0:	0020                	addi	x8,x2,8
   147b2:	c7240223          	sb	x18,-924(x8)
   147b6:	0900                	addi	x8,x2,144
   147b8:	30d85703          	lhu	x14,781(x16)
   147bc:	85e6                	mv	x11,x25
   147be:	97ca                	add	x15,x15,x18
   147c0:	454e                	lw	x10,208(x2)
   147c2:	5350                	lw	x12,36(x14)
   147c4:	9d5e                	add	x26,x26,x23
   147c6:	f5da                	fsw	f22,232(x2)
   147c8:	0000                	unimp
   147ca:	1d10                	addi	x12,x2,688
   147cc:	2046                	fld	f0,80(x2)
   147ce:	2020                	fld	f8,64(x8)
   147d0:	0020                	addi	x8,x2,8
   147d2:	0115                	addi	x2,x2,5
   147d4:	2f10                	fld	f12,24(x14)
   147d6:	0900                	addi	x8,x2,144
   147d8:	11fb5a03          	lhu	x20,287(x22)
   147dc:	8926                	mv	x18,x9
   147de:	454ee537          	lui	x10,0x454ee
   147e2:	5350                	lw	x12,36(x14)
   147e4:	9d5e                	add	x26,x26,x23
   147e6:	fbda                	fsw	f22,244(x2)
   147e8:	0000                	unimp
   147ea:	0304                	addi	x9,x2,384
   147ec:	4141                	li	x2,16
   147ee:	4c50                	lw	x12,28(x8)
   147f0:	0020                	addi	x8,x2,8
   147f2:	f303020b          	0xf303020b
   147f6:	0300                	addi	x8,x2,384
   147f8:	7f595d03          	lhu	x26,2037(x18)
   147fc:	39b5                	jal	14478 <raw_data+0x3038>
   147fe:	e3a2                	fsw	f8,196(x2)
   14800:	454e                	lw	x10,208(x2)
   14802:	5350                	lw	x12,36(x14)
   14804:	9d5e                	add	x26,x26,x23
   14806:	ffda                	fsw	f22,252(x2)
   14808:	0000                	unimp
   1480a:	5345881b          	0x5345881b
   1480e:	2020                	fld	f8,64(x8)
   14810:	0020                	addi	x8,x2,8
   14812:	021f 831b 0c00      	0xc00831b021f
   14818:	2abb6003          	0x2abb6003
   1481c:	6fa5e88f          	0x6fa5e88f
   14820:	454e                	lw	x10,208(x2)
   14822:	4250                	lw	x12,4(x12)
   14824:	9d5e                	add	x26,x26,x23
   14826:	000004db          	0x4db
   1482a:	6a38                	flw	f14,80(x12)
   1482c:	2046                	fld	f0,80(x2)
   1482e:	2020                	fld	f8,64(x8)
   14830:	0020                	addi	x8,x2,8
   14832:	010c                	addi	x11,x2,128
   14834:	7e38                	flw	f14,120(x12)
   14836:	0300                	addi	x8,x2,384
   14838:	54eb6303          	0x54eb6303
   1483c:	e060dc6f          	jal	x24,fff21e42 <__BSS_END__+0xfff0beea>
   14840:	454e                	lw	x10,208(x2)
   14842:	4250                	lw	x12,4(x12)
   14844:	9d5e                	add	x26,x26,x23
   14846:	000009db          	0x9db
   1484a:	464e7323          	0x464e7323
   1484e:	584c                	lw	x11,52(x8)
   14850:	0020                	addi	x8,x2,8
   14852:	011d                	addi	x2,x2,7
   14854:	02007623          	0x2007623
   14858:	86966403          	0x86966403
   1485c:	7cc1                	lui	x25,0xffff0
   1485e:	579f 454e 4250      	0x4250454e579f
   14864:	9d5e                	add	x26,x26,x23
   14866:	00000ddb          	0xddb
   1486a:	7b01                	lui	x22,0xfffe0
   1486c:	20585053          	0x20585053
   14870:	0020                	addi	x8,x2,8
   14872:	0214                	addi	x13,x2,256
   14874:	7801                	lui	x16,0xfffe0
   14876:	0200                	addi	x8,x2,256
   14878:	27166703          	0x27166703
   1487c:	c165                	beqz	x10,1495c <raw_data+0x351c>
   1487e:	454e2893          	slti	x17,x28,1108
   14882:	9d5e4243          	0x9d5e4243
   14886:	000011db          	0x11db
   1488a:	6426                	flw	f8,72(x2)
   1488c:	5345                	li	x6,-15
   1488e:	2020                	fld	f8,64(x8)
   14890:	0020                	addi	x8,x2,8
   14892:	021e                	slli	x4,x4,0x7
   14894:	5b26                	lw	x22,104(x2)
   14896:	0700                	addi	x8,x2,896
   14898:	18286a03          	0x18286a03
   1489c:	d2d9                	beqz	x13,14822 <raw_data+0x33e2>
   1489e:	9736                	add	x14,x14,x13
   148a0:	454e                	lw	x10,208(x2)
   148a2:	4250                	lw	x12,4(x12)
   148a4:	9d5e                	add	x26,x26,x23
   148a6:	000018db          	0x18db
   148aa:	8e1d                	sub	x12,x12,x15
   148ac:	2046                	fld	f0,80(x2)
   148ae:	2020                	fld	f8,64(x8)
   148b0:	0020                	addi	x8,x2,8
   148b2:	831d0217          	auipc	x4,0x831d0
   148b6:	0200                	addi	x8,x2,256
   148b8:	5a316d03          	0x5a316d03
   148bc:	a72b4ebf 5343454e 	0x5343454ea72b4ebf
   148c4:	9d5e                	add	x26,x26,x23
   148c6:	00001fdb          	0x1fdb
   148ca:	3c19                	jal	142e0 <raw_data+0x2ea0>
   148cc:	2046                	fld	f0,80(x2)
   148ce:	2020                	fld	f8,64(x8)
   148d0:	0020                	addi	x8,x2,8
   148d2:	3e19010b          	0x3e19010b
   148d6:	0200                	addi	x8,x2,256
   148d8:	44446f03          	0x44446f03
   148dc:	a829                	j	148f6 <raw_data+0x34b6>
   148de:	62e1                	lui	x5,0x18
   148e0:	454e                	lw	x10,208(x2)
   148e2:	4250                	lw	x12,4(x12)
   148e4:	9d5e                	add	x26,x26,x23
   148e6:	000026db          	0x26db
   148ea:	cc19                	beqz	x8,14908 <raw_data+0x34c8>
   148ec:	5345                	li	x6,-15
   148ee:	2020                	fld	f8,64(x8)
   148f0:	0020                	addi	x8,x2,8
   148f2:	0112                	slli	x2,x2,0x4
   148f4:	d919                	beqz	x10,1480a <raw_data+0x33ca>
   148f6:	0900                	addi	x8,x2,144
   148f8:	5c167203          	0x5c167203
   148fc:	10f1                	addi	x1,x1,-4
   148fe:	2206                	fld	f4,64(x2)
   14900:	454e                	lw	x10,208(x2)
   14902:	9d5e5343          	0x9d5e5343
   14906:	000030db          	0x30db
   1490a:	2c0e                	fld	f24,192(x2)
   1490c:	4141                	li	x2,16
   1490e:	4c50                	lw	x12,28(x8)
   14910:	0020                	addi	x8,x2,8
   14912:	0214                	addi	x13,x2,256
   14914:	3e0e                	fld	f28,224(x2)
   14916:	0500                	addi	x8,x2,640
   14918:	9a357303          	0x9a357303
   1491c:	63f9                	lui	x7,0x1e
   1491e:	52f9                	li	x5,-2
   14920:	454e                	lw	x10,208(x2)
   14922:	9d5e4243          	0x9d5e4243
   14926:	000036db          	0x36db
   1492a:	c728                	sw	x10,72(x14)
   1492c:	20595053          	0x20595053
   14930:	0020                	addi	x8,x2,8
   14932:	c828011b          	0xc828011b
   14936:	0200                	addi	x8,x2,256
   14938:	855f7503          	0x855f7503
   1493c:	5848                	lw	x10,52(x8)
   1493e:	0766                	slli	x14,x14,0x19
   14940:	454e                	lw	x10,208(x2)
   14942:	4250                	lw	x12,4(x12)
   14944:	9d5e                	add	x26,x26,x23
   14946:	00003ddb          	0x3ddb
   1494a:	be01                	j	1445a <raw_data+0x301a>
   1494c:	464e                	lw	x12,208(x2)
   1494e:	584c                	lw	x11,52(x8)
   14950:	0020                	addi	x8,x2,8
   14952:	bc01010f          	0xbc01010f
   14956:	0300                	addi	x8,x2,384
   14958:	a16d7703          	0xa16d7703
   1495c:	1944                	addi	x9,x2,180
   1495e:	81bc                	0x81bc
   14960:	454e                	lw	x10,208(x2)
   14962:	9d5e4243          	0x9d5e4243
   14966:	000045db          	0x45db
   1496a:	4f47e30f          	0x4f47e30f
   1496e:	004c474f          	fnmadd.s	f14,f24,f4,f0,rmm
   14972:	e60f0117          	auipc	x2,0xe60f0
   14976:	0400                	addi	x8,x2,512
   14978:	81d97903          	0x81d97903
   1497c:	63ca                	flw	f7,144(x2)
   1497e:	454e3507          	fld	f10,1108(x28)
   14982:	5350                	lw	x12,36(x14)
   14984:	9d5e                	add	x26,x26,x23
   14986:	00004ddb          	0x4ddb
   1498a:	dc12                	sw	x4,56(x2)
   1498c:	474f4f47          	fmsub.q	f30,f30,f20,f8,rmm
   14990:	004c                	addi	x11,x2,4
   14992:	0205                	addi	x4,x4,1
   14994:	d412                	sw	x4,40(x2)
   14996:	0300                	addi	x8,x2,384
   14998:	f0467c03          	0xf0467c03
   1499c:	3b35                	jal	146d8 <raw_data+0x3298>
   1499e:	454e7ebb          	0x454e7ebb
   149a2:	4250                	lw	x12,4(x12)
   149a4:	9d5e                	add	x26,x26,x23
   149a6:	000055db          	0x55db
   149aa:	bb0d                	j	146dc <raw_data+0x329c>
   149ac:	5345                	li	x6,-15
   149ae:	2020                	fld	f8,64(x8)
   149b0:	0020                	addi	x8,x2,8
   149b2:	ab0d011b          	0xab0d011b
   149b6:	0a00                	addi	x8,x2,272
   149b8:	1abd7c03          	0x1abd7c03
   149bc:	92a4                	0x92a4
   149be:	454ebb6b          	0x454ebb6b
   149c2:	9d5e4243          	0x9d5e4243
   149c6:	00005ddb          	0x5ddb
   149ca:	4c3a                	lw	x24,140(x2)
   149cc:	4d59                	li	x26,22
   149ce:	2020                	fld	f8,64(x8)
   149d0:	0020                	addi	x8,x2,8
   149d2:	011a                	slli	x2,x2,0x6
   149d4:	503a                	0x503a
   149d6:	0500                	addi	x8,x2,640
   149d8:	8a9b7e03          	0x8a9b7e03
   149dc:	1213226f          	jal	x4,472fc <__BSS_END__+0x313a4>
   149e0:	454e                	lw	x10,208(x2)
   149e2:	9d5e5343          	0x9d5e5343
   149e6:	000063db          	0x63db
   149ea:	5053d103          	lhu	x2,1285(x7) # 1e505 <__BSS_END__+0x85ad>
   149ee:	2058                	fld	f14,128(x8)
   149f0:	0020                	addi	x8,x2,8
   149f2:	0110                	addi	x12,x2,128
   149f4:	0800e003          	0x800e003
   149f8:	54e07f03          	0x54e07f03
   149fc:	cd65                	beqz	x10,14af4 <raw_data+0x36b4>
   149fe:	454edae7          	0x454edae7
   14a02:	5350                	lw	x12,36(x14)
   14a04:	9d5e                	add	x26,x26,x23
   14a06:	000067db          	0x67db
   14a0a:	cb1d                	beqz	x14,14a40 <raw_data+0x3600>
   14a0c:	20595053          	0x20595053
   14a10:	0020                	addi	x8,x2,8
   14a12:	0106                	slli	x2,x2,0x1
   14a14:	bb1d                	j	1474a <raw_data+0x330a>
   14a16:	0500                	addi	x8,x2,640
   14a18:	341d8103          	lb	x2,833(x27) # 15341 <raw_data+0x3f01>
   14a1c:	d1686017          	auipc	x0,0xd1686
   14a20:	454e                	lw	x10,208(x2)
   14a22:	4250                	lw	x12,4(x12)
   14a24:	9d5e                	add	x26,x26,x23
   14a26:	00006fdb          	0x6fdb
   14a2a:	b612                	fsd	f4,296(x2)
   14a2c:	2046                	fld	f0,80(x2)
   14a2e:	2020                	fld	f8,64(x8)
   14a30:	0020                	addi	x8,x2,8
   14a32:	0116                	slli	x2,x2,0x5
   14a34:	a312                	fsd	f4,384(x2)
   14a36:	0700                	addi	x8,x2,896
   14a38:	77478203          	lb	x4,1908(x15) # 1c774 <__BSS_END__+0x681c>
   14a3c:	3164                	fld	f9,224(x10)
   14a3e:	61cc                	flw	f11,4(x11)
   14a40:	454e                	lw	x10,208(x2)
   14a42:	9d5e4243          	0x9d5e4243
   14a46:	000076db          	0x76db
   14a4a:	2802                	fld	f16,0(x2)
   14a4c:	4d59                	li	x26,22
   14a4e:	2020                	fld	f8,64(x8)
   14a50:	0020                	addi	x8,x2,8
   14a52:	1c020103          	lb	x2,448(x4) # 831e4a72 <__BSS_END__+0x831ceb1a>
   14a56:	0a00                	addi	x8,x2,272
   14a58:	d11a8503          	lb	x10,-751(x21) # 1bd11 <__BSS_END__+0x5db9>
   14a5c:	b9a13e03          	0xb9a13e03
   14a60:	454e                	lw	x10,208(x2)
   14a62:	5350                	lw	x12,36(x14)
   14a64:	9d5e                	add	x26,x26,x23
   14a66:	000083db          	0x83db
   14a6a:	3924                	fld	f9,112(x10)
   14a6c:	20495457          	0x20495457
   14a70:	0020                	addi	x8,x2,8
   14a72:	0111                	addi	x2,x2,4
   14a74:	4c24                	lw	x9,88(x8)
   14a76:	0400                	addi	x8,x2,512
   14a78:	6b678903          	lb	x18,1718(x15)
   14a7c:	239e4d0b          	0x239e4d0b
   14a80:	454e                	lw	x10,208(x2)
   14a82:	5350                	lw	x12,36(x14)
   14a84:	9d5e                	add	x26,x26,x23
   14a86:	00008bdb          	0x8bdb
   14a8a:	e021                	bnez	x8,14aca <raw_data+0x368a>
   14a8c:	2046                	fld	f0,80(x2)
   14a8e:	2020                	fld	f8,64(x8)
   14a90:	0020                	addi	x8,x2,8
   14a92:	021e                	slli	x4,x4,0x7
   14a94:	e821                	bnez	x8,14ae4 <raw_data+0x36a4>
   14a96:	0900                	addi	x8,x2,144
   14a98:	0c7f8c03          	lb	x24,199(x31) # ffff60c7 <__BSS_END__+0xfffe016f>
   14a9c:	dc48                	sw	x10,60(x8)
   14a9e:	a00c                	fsd	f11,0(x8)
   14aa0:	454e                	lw	x10,208(x2)
   14aa2:	9d5e5343          	0x9d5e5343
   14aa6:	00008fdb          	0x8fdb
   14aaa:	464e380f          	0x464e380f
   14aae:	584c                	lw	x11,52(x8)
   14ab0:	0020                	addi	x8,x2,8
   14ab2:	3b0f0223          	sb	x16,932(x30)
   14ab6:	0200                	addi	x8,x2,256
   14ab8:	7a268f03          	lb	x30,1954(x13)
   14abc:	daec                	sw	x11,116(x13)
   14abe:	944a                	add	x8,x8,x18
   14ac0:	454e                	lw	x10,208(x2)
   14ac2:	9d5e5343          	0x9d5e5343
   14ac6:	000098db          	0x98db
   14aca:	2719                	jal	151d0 <raw_data+0x3d90>
   14acc:	464e                	lw	x12,208(x2)
   14ace:	584c                	lw	x11,52(x8)
   14ad0:	0020                	addi	x8,x2,8
   14ad2:	0114                	addi	x13,x2,128
   14ad4:	2619                	jal	14dda <raw_data+0x399a>
   14ad6:	0200                	addi	x8,x2,256
   14ad8:	77189103          	lh	x2,1905(x17)
   14adc:	2295                	jal	14c40 <raw_data+0x3800>
   14ade:	454e1e37          	lui	x28,0x454e1
   14ae2:	9d5e5343          	0x9d5e5343
   14ae6:	0000acdb          	0xacdb
   14aea:	1725                	addi	x14,x14,-23
   14aec:	474f4f47          	fmsub.q	f30,f30,f20,f8,rmm
   14af0:	004c                	addi	x11,x2,4
   14af2:	020d                	addi	x4,x4,3
   14af4:	0e25                	addi	x28,x28,9
   14af6:	0b00                	addi	x8,x2,400
   14af8:	7fb99703          	lh	x14,2043(x19) # a222a475 <__BSS_END__+0xa221451d>
   14afc:	ca79                	beqz	x12,14bd2 <raw_data+0x3792>
   14afe:	c916                	sw	x5,144(x2)
   14b00:	454e                	lw	x10,208(x2)
   14b02:	9d5e5343          	0x9d5e5343
   14b06:	0000b7db          	0xb7db
   14b0a:	5828                	lw	x10,112(x8)
   14b0c:	2046                	fld	f0,80(x2)
   14b0e:	2020                	fld	f8,64(x8)
   14b10:	0020                	addi	x8,x2,8
   14b12:	0220                	addi	x8,x2,264
   14b14:	6828                	flw	f10,80(x8)
   14b16:	0800                	addi	x8,x2,16
   14b18:	402c9903          	lh	x18,1026(x25) # ffff0402 <__BSS_END__+0xfffda4aa>
   14b1c:	c9e82197          	auipc	x3,0xc9e82
   14b20:	454e                	lw	x10,208(x2)
   14b22:	9d5e5343          	0x9d5e5343
   14b26:	0000badb          	0xbadb
   14b2a:	5053682b          	0x5053682b
   14b2e:	2059                	jal	14bb4 <raw_data+0x3774>
   14b30:	0020                	addi	x8,x2,8
   14b32:	0214                	addi	x13,x2,256
   14b34:	0200772b          	0x200772b
   14b38:	9a379c03          	lh	x24,-1629(x15)
   14b3c:	6f14                	flw	f13,24(x14)
   14b3e:	454ead8b          	0x454ead8b
   14b42:	9d5e5343          	0x9d5e5343
   14b46:	0000c3db          	0xc3db
   14b4a:	3c2d                	jal	14584 <raw_data+0x3144>
   14b4c:	2046                	fld	f0,80(x2)
   14b4e:	2020                	fld	f8,64(x8)
   14b50:	0020                	addi	x8,x2,8
   14b52:	0222                	slli	x4,x4,0x8
   14b54:	3b2d                	jal	1488e <raw_data+0x344e>
   14b56:	0300                	addi	x8,x2,384
   14b58:	1eb49c03          	lh	x24,491(x9) # fffe21eb <__BSS_END__+0xfffcc293>
   14b5c:	e9bcab63          	0xe9bcab63
   14b60:	454e                	lw	x10,208(x2)
   14b62:	9d5e4243          	0x9d5e4243
   14b66:	0000c6db          	0xc6db
   14b6a:	1c0e                	slli	x24,x24,0x23
   14b6c:	4141                	li	x2,16
   14b6e:	4c50                	lw	x12,28(x8)
   14b70:	0020                	addi	x8,x2,8
   14b72:	0211                	addi	x4,x4,4
   14b74:	1f0e                	slli	x30,x30,0x23
   14b76:	0a00                	addi	x8,x2,272
   14b78:	5e789d03          	lh	x26,1511(x17)
   14b7c:	fef1                	bnez	x13,14b58 <raw_data+0x3718>
   14b7e:	657f                	0x657f
   14b80:	454e                	lw	x10,208(x2)
   14b82:	5350                	lw	x12,36(x14)
   14b84:	9d5e                	add	x26,x26,x23
   14b86:	0000d0db          	0xd0db
   14b8a:	464e690b          	0x464e690b
   14b8e:	584c                	lw	x11,52(x8)
   14b90:	0020                	addi	x8,x2,8
   14b92:	0206                	slli	x4,x4,0x1
   14b94:	06007d0b          	0x6007d0b
   14b98:	d3f99f03          	lh	x30,-705(x19)
   14b9c:	182e875b          	0x182e875b
   14ba0:	454e                	lw	x10,208(x2)
   14ba2:	5350                	lw	x12,36(x14)
   14ba4:	9d5e                	add	x26,x26,x23
   14ba6:	0000d5db          	0xd5db
   14baa:	41414407          	flq	f8,1044(x2) # e6104d86 <__BSS_END__+0xe60eee2e>
   14bae:	4c50                	lw	x12,28(x8)
   14bb0:	0020                	addi	x8,x2,8
   14bb2:	4f07010f          	0x4f07010f
   14bb6:	0900                	addi	x8,x2,144
   14bb8:	0d79a003          	lw	x0,215(x19)
   14bbc:	b316                	fsd	f5,416(x2)
   14bbe:	7faa                	flw	f31,168(x2)
   14bc0:	454e                	lw	x10,208(x2)
   14bc2:	5350                	lw	x12,36(x14)
   14bc4:	9d5e                	add	x26,x26,x23
   14bc6:	0000d8db          	0xd8db
   14bca:	464e6513          	ori	x10,x28,1124
   14bce:	584c                	lw	x11,52(x8)
   14bd0:	0020                	addi	x8,x2,8
   14bd2:	0108                	addi	x10,x2,128
   14bd4:	02005613          	srli	x12,x0,0x20
   14bd8:	b373a303          	lw	x6,-1225(x7)
   14bdc:	920e                	add	x4,x4,x3
   14bde:	454e3b83          	0x454e3b83
   14be2:	9d5e5343          	0x9d5e5343
   14be6:	0000dbdb          	0xdbdb
   14bea:	232e                	fld	f6,200(x2)
   14bec:	4d59                	li	x26,22
   14bee:	2020                	fld	f8,64(x8)
   14bf0:	0020                	addi	x8,x2,8
   14bf2:	0111                	addi	x2,x2,4
   14bf4:	222e                	fld	f4,200(x2)
   14bf6:	0c00                	addi	x8,x2,528
   14bf8:	5147a403          	lw	x8,1300(x15)
   14bfc:	3159dbd7          	0x3159dbd7
   14c00:	454e                	lw	x10,208(x2)
   14c02:	4250                	lw	x12,4(x12)
   14c04:	9d5e                	add	x26,x26,x23
   14c06:	0000e3db          	0xe3db
   14c0a:	cf21                	beqz	x14,14c62 <raw_data+0x3822>
   14c0c:	2046                	fld	f0,80(x2)
   14c0e:	2020                	fld	f8,64(x8)
   14c10:	0020                	addi	x8,x2,8
   14c12:	0120                	addi	x8,x2,136
   14c14:	cf21                	beqz	x14,14c6c <raw_data+0x382c>
   14c16:	0800                	addi	x8,x2,16
   14c18:	5d7ea603          	lw	x12,1495(x29) # ffffc5d7 <__BSS_END__+0xfffe667f>
   14c1c:	4e7a                	lw	x28,156(x2)
   14c1e:	7b14                	flw	f13,48(x14)
   14c20:	454e                	lw	x10,208(x2)
   14c22:	9d5e4243          	0x9d5e4243
   14c26:	0000e8db          	0xe8db
   14c2a:	b611                	j	1472e <raw_data+0x32ee>
   14c2c:	474f4f47          	fmsub.q	f30,f30,f20,f8,rmm
   14c30:	004c                	addi	x11,x2,4
   14c32:	0214                	addi	x13,x2,256
   14c34:	b611                	j	14738 <raw_data+0x32f8>
   14c36:	0600                	addi	x8,x2,768
   14c38:	4494a903          	lw	x18,1097(x9)
   14c3c:	5417d07b          	0x5417d07b
   14c40:	454e                	lw	x10,208(x2)
   14c42:	9d5e5343          	0x9d5e5343
   14c46:	0000ebdb          	0xebdb
   14c4a:	b124                	fsd	f9,96(x10)
   14c4c:	4d59                	li	x26,22
   14c4e:	2020                	fld	f8,64(x8)
   14c50:	0020                	addi	x8,x2,8
   14c52:	010d                	addi	x2,x2,3
   14c54:	a024                	fsd	f9,64(x8)
   14c56:	0600                	addi	x8,x2,768
   14c58:	cb7eaa03          	lw	x20,-841(x29)
   14c5c:	67e6                	flw	f15,88(x2)
   14c5e:	6a01                	0x6a01
   14c60:	454e                	lw	x10,208(x2)
   14c62:	9d5e4243          	0x9d5e4243
   14c66:	0000eedb          	0xeedb
   14c6a:	561a                	lw	x12,164(x2)
   14c6c:	5345                	li	x6,-15
   14c6e:	2020                	fld	f8,64(x8)
   14c70:	0020                	addi	x8,x2,8
   14c72:	0215                	addi	x4,x4,5
   14c74:	661a                	flw	f12,132(x2)
   14c76:	0500                	addi	x8,x2,640
   14c78:	82afab03          	lw	x22,-2006(x31)
   14c7c:	eae9                	bnez	x13,14d4e <raw_data+0x390e>
   14c7e:	1054                	addi	x13,x2,36
   14c80:	454e                	lw	x10,208(x2)
   14c82:	9d5e5343          	0x9d5e5343
   14c86:	0000f3db          	0xf3db
   14c8a:	122a                	slli	x4,x4,0x2a
   14c8c:	20585053          	0x20585053
   14c90:	0020                	addi	x8,x2,8
   14c92:	020a                	slli	x4,x4,0x2
   14c94:	222a                	fld	f4,136(x2)
   14c96:	0500                	addi	x8,x2,640
   14c98:	e34bac03          	lw	x24,-460(x23) # fffece34 <__BSS_END__+0xfffd6edc>
   14c9c:	fb3c                	fsw	f15,112(x14)
   14c9e:	9650                	0x9650
   14ca0:	454e                	lw	x10,208(x2)
   14ca2:	5350                	lw	x12,36(x14)
   14ca4:	9d5e                	add	x26,x26,x23
   14ca6:	0000fcdb          	0xfcdb
   14caa:	5001                	c.li	x0,-32
   14cac:	4d59                	li	x26,22
   14cae:	2020                	fld	f8,64(x8)
   14cb0:	0020                	addi	x8,x2,8
   14cb2:	0220                	addi	x8,x2,264
   14cb4:	5301                	li	x6,-32
   14cb6:	0200                	addi	x8,x2,256
   14cb8:	6e0bae03          	lw	x28,1760(x23)
   14cbc:	3535                	jal	14ae8 <raw_data+0x36a8>
   14cbe:	a7a2                	fsd	f8,456(x2)
   14cc0:	454e                	lw	x10,208(x2)
   14cc2:	5350                	lw	x12,36(x14)
   14cc4:	9d5e                	add	x26,x26,x23
   14cc6:	00dc                	addi	x15,x2,68
   14cc8:	0000                	unimp
   14cca:	5053d623          	0x5053d623
   14cce:	2059                	jal	14d54 <raw_data+0x3914>
   14cd0:	0020                	addi	x8,x2,8
   14cd2:	0120                	addi	x8,x2,136
   14cd4:	0300df23          	0x300df23
   14cd8:	82b4b003          	0x82b4b003
   14cdc:	cc3e                	sw	x15,24(x2)
   14cde:	454ebd3f 9d5e5343 	0x9d5e5343454ebd3f
   14ce6:	05dc                	addi	x15,x2,708
   14ce8:	0000                	unimp
   14cea:	4716                	lw	x14,68(x2)
   14cec:	464e                	lw	x12,208(x2)
   14cee:	584c                	lw	x11,52(x8)
   14cf0:	0020                	addi	x8,x2,8
   14cf2:	011a                	slli	x2,x2,0x6
   14cf4:	4916                	lw	x18,68(x2)
   14cf6:	0300                	addi	x8,x2,384
   14cf8:	6b7bb203          	0x6b7bb203
   14cfc:	400c                	lw	x11,0(x8)
   14cfe:	0880                	addi	x8,x2,80
   14d00:	454e                	lw	x10,208(x2)
   14d02:	9d5e4243          	0x9d5e4243
   14d06:	0ddc                	addi	x15,x2,724
   14d08:	0000                	unimp
   14d0a:	ae39                	j	15028 <raw_data+0x3be8>
   14d0c:	2046                	fld	f0,80(x2)
   14d0e:	2020                	fld	f8,64(x8)
   14d10:	0020                	addi	x8,x2,8
   14d12:	011d                	addi	x2,x2,7
   14d14:	bc39                	j	14732 <raw_data+0x32f2>
   14d16:	0200                	addi	x8,x2,256
   14d18:	f844b403          	0xf844b403
   14d1c:	6f69                	lui	x30,0x1a
   14d1e:	fff0                	fsw	f12,124(x15)
   14d20:	454e                	lw	x10,208(x2)
   14d22:	4250                	lw	x12,4(x12)
   14d24:	9d5e                	add	x26,x26,x23
   14d26:	11dc                	addi	x15,x2,228
   14d28:	0000                	unimp
   14d2a:	a11d                	j	15150 <raw_data+0x3d10>
   14d2c:	4d59                	li	x26,22
   14d2e:	2020                	fld	f8,64(x8)
   14d30:	0020                	addi	x8,x2,8
   14d32:	0114                	addi	x13,x2,128
   14d34:	951d                	srai	x10,x10,0x27
   14d36:	0600                	addi	x8,x2,768
   14d38:	aa25b703          	0xaa25b703
   14d3c:	a393a4bb          	0xa393a4bb
   14d40:	454e                	lw	x10,208(x2)
   14d42:	5350                	lw	x12,36(x14)
   14d44:	9d5e                	add	x26,x26,x23
   14d46:	16dc                	addi	x15,x2,868
   14d48:	0000                	unimp
   14d4a:	623a                	flw	f4,140(x2)
   14d4c:	474f4f47          	fmsub.q	f30,f30,f20,f8,rmm
   14d50:	004c                	addi	x11,x2,4
   14d52:	583a0113          	addi	x2,x20,1411
   14d56:	0800                	addi	x8,x2,16
   14d58:	aaccb803          	0xaaccb803
   14d5c:	6c79                	lui	x24,0x1e
   14d5e:	454e202f          	amoor.w.aq	x0,x20,(x28)
   14d62:	4250                	lw	x12,4(x12)
   14d64:	9d5e                	add	x26,x26,x23
   14d66:	20dc                	fld	f15,128(x9)
   14d68:	0000                	unimp
   14d6a:	b811                	j	1457e <raw_data+0x313e>
   14d6c:	474f4f47          	fmsub.q	f30,f30,f20,f8,rmm
   14d70:	004c                	addi	x11,x2,4
   14d72:	be110207          	0xbe110207
   14d76:	0300                	addi	x8,x2,384
   14d78:	fbfab903          	0xfbfab903
   14d7c:	1600                	addi	x8,x2,800
   14d7e:	454ee83b          	0x454ee83b
   14d82:	9d5e4243          	0x9d5e4243
   14d86:	27dc                	fld	f15,136(x15)
   14d88:	0000                	unimp
   14d8a:	381d                	jal	145c0 <raw_data+0x3180>
   14d8c:	464e                	lw	x12,208(x2)
   14d8e:	584c                	lw	x11,52(x8)
   14d90:	0020                	addi	x8,x2,8
   14d92:	3a1d0223          	sb	x1,932(x26)
   14d96:	0c00                	addi	x8,x2,528
   14d98:	3fbebb03          	0x3fbebb03
   14d9c:	799a99e3          	bne	x21,x25,15d2e <__global_pointer$+0x5d6>
   14da0:	6e59                	lui	x28,0x16
   14da2:	9d5e5343          	0x9d5e5343
   14da6:	2ddc                	fld	f15,152(x11)
   14da8:	0000                	unimp
   14daa:	5053f537          	lui	x10,0x5053f
   14dae:	2059                	jal	14e34 <raw_data+0x39f4>
   14db0:	0020                	addi	x8,x2,8
   14db2:	011d                	addi	x2,x2,7
   14db4:	0b00f837          	lui	x16,0xb00f
   14db8:	4b13bd03          	0x4b13bd03
   14dbc:	883970db          	0x883970db
   14dc0:	454e                	lw	x10,208(x2)
   14dc2:	5350                	lw	x12,36(x14)
   14dc4:	9d5e                	add	x26,x26,x23
   14dc6:	32dc                	fld	f15,160(x13)
   14dc8:	0000                	unimp
   14dca:	1e29                	addi	x28,x28,-22
   14dcc:	464e                	lw	x12,208(x2)
   14dce:	584c                	lw	x11,52(x8)
   14dd0:	0020                	addi	x8,x2,8
   14dd2:	0222                	slli	x4,x4,0x8
   14dd4:	0d29                	addi	x26,x26,10
   14dd6:	0a00                	addi	x8,x2,272
   14dd8:	9f38be03          	0x9f38be03
   14ddc:	be1a                	fsd	f6,312(x2)
   14dde:	454e457b          	0x454e457b
   14de2:	5350                	lw	x12,36(x14)
   14de4:	9d5e                	add	x26,x26,x23
   14de6:	3cdc                	fld	f15,184(x9)
   14de8:	0000                	unimp
   14dea:	ef02                	fsw	f0,156(x2)
   14dec:	20595053          	0x20595053
   14df0:	0020                	addi	x8,x2,8
   14df2:	0208                	addi	x10,x2,256
   14df4:	ff02                	fsw	f0,188(x2)
   14df6:	0600                	addi	x8,x2,768
   14df8:	11e4c003          	lbu	x0,286(x9)
   14dfc:	713cc343          	fmadd.s	f6,f25,f19,f14,rmm
   14e00:	454e                	lw	x10,208(x2)
   14e02:	9d5e5343          	0x9d5e5343
   14e06:	42dc                	lw	x15,4(x13)
   14e08:	0000                	unimp
   14e0a:	e005                	bnez	x8,14e2a <raw_data+0x39ea>
   14e0c:	474f4f47          	fmsub.q	f30,f30,f20,f8,rmm
   14e10:	004c                	addi	x11,x2,4
   14e12:	021c                	addi	x15,x2,256
   14e14:	e105                	bnez	x10,14e34 <raw_data+0x39f4>
   14e16:	0d00                	addi	x8,x2,656
   14e18:	dea3c203          	lbu	x4,-534(x7)
   14e1c:	c001                	beqz	x8,14e1c <raw_data+0x39dc>
   14e1e:	8fb0                	0x8fb0
   14e20:	454e                	lw	x10,208(x2)
   14e22:	4250                	lw	x12,4(x12)
   14e24:	9d5e                	add	x26,x26,x23
   14e26:	48dc                	lw	x15,20(x9)
   14e28:	0000                	unimp
   14e2a:	e212                	fsw	f4,4(x2)
   14e2c:	20585053          	0x20585053
   14e30:	0020                	addi	x8,x2,8
   14e32:	ea120213          	addi	x4,x4,-351 # fffffea1 <__BSS_END__+0xfffe9f49>
   14e36:	0700                	addi	x8,x2,896
   14e38:	63acc503          	lbu	x10,1594(x25)
   14e3c:	0800c13f 4250454e 	0x4250454e0800c13f
   14e44:	9d5e                	add	x26,x26,x23
   14e46:	4fdc                	lw	x15,28(x15)
   14e48:	0000                	unimp
   14e4a:	1015                	c.nop	-27
   14e4c:	464e                	lw	x12,208(x2)
   14e4e:	584c                	lw	x11,52(x8)
   14e50:	0020                	addi	x8,x2,8
   14e52:	0111                	addi	x2,x2,4
   14e54:	0515                	addi	x10,x10,5
   14e56:	0500                	addi	x8,x2,640
   14e58:	4093c803          	lbu	x16,1033(x7)
   14e5c:	5149                	li	x2,-14
   14e5e:	1f68                	addi	x10,x2,956
   14e60:	454e                	lw	x10,208(x2)
   14e62:	5350                	lw	x12,36(x14)
   14e64:	9d5e                	add	x26,x26,x23
   14e66:	5edc                	lw	x15,60(x13)
   14e68:	0000                	unimp
   14e6a:	a934                	fsd	f13,80(x10)
   14e6c:	4141                	li	x2,16
   14e6e:	4c50                	lw	x12,28(x8)
   14e70:	0020                	addi	x8,x2,8
   14e72:	a034010b          	0xa034010b
   14e76:	0800                	addi	x8,x2,16
   14e78:	be2ccc03          	lbu	x24,-1054(x25)
   14e7c:	a6a0                	fsd	f8,72(x13)
   14e7e:	454e98a7          	0x454e98a7
   14e82:	9d5e4243          	0x9d5e4243
   14e86:	6fdc                	flw	f15,28(x15)
   14e88:	0000                	unimp
   14e8a:	4d592027          	fsw	f21,1216(x18)
   14e8e:	2020                	fld	f8,64(x8)
   14e90:	0020                	addi	x8,x2,8
   14e92:	0204                	addi	x9,x2,256
   14e94:	07001d27          	0x7001d27
   14e98:	d100cf03          	lbu	x30,-752(x1)
   14e9c:	ed3d                	bnez	x10,14f1a <raw_data+0x3ada>
   14e9e:	de9e                	sw	x7,124(x2)
   14ea0:	454e                	lw	x10,208(x2)
   14ea2:	5350                	lw	x12,36(x14)
   14ea4:	9d5e                	add	x26,x26,x23
   14ea6:	73dc                	flw	f15,36(x15)
   14ea8:	0000                	unimp
   14eaa:	ac31                	j	150c6 <raw_data+0x3c86>
   14eac:	4d59                	li	x26,22
   14eae:	2020                	fld	f8,64(x8)
   14eb0:	0020                	addi	x8,x2,8
   14eb2:	0116                	slli	x2,x2,0x5
   14eb4:	a531                	j	154c0 <raw_data+0x4080>
   14eb6:	0300                	addi	x8,x2,384
   14eb8:	8b84d003          	lhu	x0,-1864(x9)
   14ebc:	3b6a                	fld	f22,184(x2)
   14ebe:	b761                	j	14e46 <raw_data+0x3a06>
   14ec0:	454e                	lw	x10,208(x2)
   14ec2:	4250                	lw	x12,4(x12)
   14ec4:	9d5e                	add	x26,x26,x23
   14ec6:	7bdc                	flw	f15,52(x15)
   14ec8:	0000                	unimp
   14eca:	252e                	fld	f10,200(x2)
   14ecc:	474f4f47          	fmsub.q	f30,f30,f20,f8,rmm
   14ed0:	004c                	addi	x11,x2,4
   14ed2:	011e                	slli	x2,x2,0x7
   14ed4:	132e                	slli	x6,x6,0x2b
   14ed6:	0500                	addi	x8,x2,640
   14ed8:	597cd103          	lhu	x2,1431(x25)
   14edc:	b04c                	fsd	f11,160(x8)
   14ede:	8ed2                	mv	x29,x20
   14ee0:	454e                	lw	x10,208(x2)
   14ee2:	4250                	lw	x12,4(x12)
   14ee4:	9d5e                	add	x26,x26,x23
   14ee6:	89dc                	0x89dc
   14ee8:	0000                	unimp
   14eea:	2429                	jal	150f4 <raw_data+0x3cb4>
   14eec:	4d59                	li	x26,22
   14eee:	2020                	fld	f8,64(x8)
   14ef0:	0020                	addi	x8,x2,8
   14ef2:	011d                	addi	x2,x2,7
   14ef4:	2629                	jal	151fe <raw_data+0x3dbe>
   14ef6:	0800                	addi	x8,x2,16
   14ef8:	edc7d403          	lhu	x8,-292(x15)
   14efc:	437a                	lw	x6,156(x2)
   14efe:	71f2                	flw	f3,60(x2)
   14f00:	454e                	lw	x10,208(x2)
   14f02:	9d5e5343          	0x9d5e5343
   14f06:	8cdc                	0x8cdc
   14f08:	0000                	unimp
   14f0a:	463a                	lw	x12,140(x2)
   14f0c:	474f4f47          	fmsub.q	f30,f30,f20,f8,rmm
   14f10:	004c                	addi	x11,x2,4
   14f12:	523a0117          	auipc	x2,0x523a0
   14f16:	0d00                	addi	x8,x2,656
   14f18:	acbbd503          	lhu	x10,-1333(x23)
   14f1c:	e1f6                	fsw	f29,192(x2)
   14f1e:	45a9                	li	x11,10
   14f20:	704e                	flw	f0,240(x2)
   14f22:	9d5e4243          	0x9d5e4243
   14f26:	93dc                	0x93dc
   14f28:	0000                	unimp
   14f2a:	e50e                	fsw	f3,136(x2)
   14f2c:	474f4f47          	fmsub.q	f30,f30,f20,f8,rmm
   14f30:	004c                	addi	x11,x2,4
   14f32:	020a                	slli	x4,x4,0x2
   14f34:	d30e                	sw	x3,164(x2)
   14f36:	0400                	addi	x8,x2,512
   14f38:	5ca7d703          	lhu	x14,1482(x15)
   14f3c:	b635                	j	14a68 <raw_data+0x3628>
   14f3e:	9a4c                	0x9a4c
   14f40:	454e                	lw	x10,208(x2)
   14f42:	9d5e4243          	0x9d5e4243
   14f46:	98dc                	0x98dc
   14f48:	0000                	unimp
   14f4a:	5345502f          	0x5345502f
   14f4e:	2020                	fld	f8,64(x8)
   14f50:	0020                	addi	x8,x2,8
   14f52:	0111                	addi	x2,x2,4
   14f54:	0b00592f          	0xb00592f
   14f58:	56e9da03          	lhu	x20,1390(x19)
   14f5c:	3dac                	fld	f11,120(x11)
   14f5e:	a942                	fsd	f16,144(x2)
   14f60:	7351                	lui	x6,0xffff4
   14f62:	4250                	lw	x12,4(x12)
   14f64:	9d5e                	add	x26,x26,x23
   14f66:	9bdc                	0x9bdc
   14f68:	0000                	unimp
   14f6a:	472a                	lw	x14,136(x2)
   14f6c:	20585053          	0x20585053
   14f70:	0020                	addi	x8,x2,8
   14f72:	472a010f          	0x472a010f
   14f76:	0c00                	addi	x8,x2,528
   14f78:	4c15dd03          	lhu	x26,1217(x11) # 164c1 <__BSS_END__+0x569>
   14f7c:	37c925e7          	0x37c925e7
   14f80:	454e                	lw	x10,208(x2)
   14f82:	9d5e4243          	0x9d5e4243
   14f86:	a5dc                	fsd	f15,136(x11)
   14f88:	0000                	unimp
   14f8a:	4501                	li	x10,0
   14f8c:	20495457          	0x20495457
   14f90:	0020                	addi	x8,x2,8
   14f92:	0219                	addi	x4,x4,6
   14f94:	4601                	li	x12,0
   14f96:	0700                	addi	x8,x2,896
   14f98:	f18ee003          	0xf18ee003
   14f9c:	b9c3b4f3          	csrrc	x9,mhpmcounter28h,x7
   14fa0:	454e                	lw	x10,208(x2)
   14fa2:	5350                	lw	x12,36(x14)
   14fa4:	9d5e                	add	x26,x26,x23
   14fa6:	aedc                	fsd	f15,152(x13)
   14fa8:	0000                	unimp
   14faa:	2f16                	fld	f30,320(x2)
   14fac:	5345                	li	x6,-15
   14fae:	2020                	fld	f8,64(x8)
   14fb0:	0020                	addi	x8,x2,8
   14fb2:	011d                	addi	x2,x2,7
   14fb4:	2b16                	fld	f22,320(x2)
   14fb6:	0a00                	addi	x8,x2,272
   14fb8:	09e5e203          	0x9e5e203
   14fbc:	9ee9430b          	0x9ee9430b
   14fc0:	454e                	lw	x10,208(x2)
   14fc2:	5350                	lw	x12,36(x14)
   14fc4:	9d5e                	add	x26,x26,x23
   14fc6:	b6dc                	fsd	f15,168(x13)
   14fc8:	0000                	unimp
   14fca:	dd11                	beqz	x10,14ee6 <raw_data+0x3aa6>
   14fcc:	20585053          	0x20585053
   14fd0:	0020                	addi	x8,x2,8
   14fd2:	0116                	slli	x2,x2,0x5
   14fd4:	e311                	bnez	x14,14fd8 <raw_data+0x3b98>
   14fd6:	0900                	addi	x8,x2,144
   14fd8:	1595e403          	0x1595e403
   14fdc:	98a4                	0x98a4
   14fde:	2672                	fld	f12,280(x2)
   14fe0:	454e                	lw	x10,208(x2)
   14fe2:	5350                	lw	x12,36(x14)
   14fe4:	9d5e                	add	x26,x26,x23
   14fe6:	bfdc                	fsd	f15,184(x15)
   14fe8:	0000                	unimp
   14fea:	9d02                	jalr	x26
   14fec:	464e                	lw	x12,208(x2)
   14fee:	584c                	lw	x11,52(x8)
   14ff0:	0020                	addi	x8,x2,8
   14ff2:	0122                	slli	x2,x2,0x8
   14ff4:	9802                	jalr	x16
   14ff6:	0600                	addi	x8,x2,768
   14ff8:	82bae603          	0x82bae603
   14ffc:	5102                	lw	x2,32(x2)
   14ffe:	8c19                	sub	x8,x8,x14
   15000:	454e                	lw	x10,208(x2)
   15002:	5350                	lw	x12,36(x14)
   15004:	9d5e                	add	x26,x26,x23
   15006:	c8dc                	sw	x15,20(x9)
   15008:	0000                	unimp
   1500a:	5053c237          	lui	x4,0x5053c
   1500e:	2059                	jal	15094 <raw_data+0x3c54>
   15010:	0020                	addi	x8,x2,8
   15012:	ba370123          	sb	x3,-1118(x14)
   15016:	0200                	addi	x8,x2,256
   15018:	b1c0e903          	0xb1c0e903
   1501c:	faee                	fsw	f27,116(x2)
   1501e:	ff22                	fsw	f8,188(x2)
   15020:	454e                	lw	x10,208(x2)
   15022:	9d5e5343          	0x9d5e5343
   15026:	d2dc                	sw	x15,36(x13)
   15028:	0000                	unimp
   1502a:	2504                	fld	f9,8(x10)
   1502c:	4d59                	li	x26,22
   1502e:	2020                	fld	f8,64(x8)
   15030:	0020                	addi	x8,x2,8
   15032:	0205                	addi	x4,x4,1
   15034:	2e04                	fld	f9,24(x12)
   15036:	0a00                	addi	x8,x2,272
   15038:	f4bdec03          	0xf4bdec03
   1503c:	031c                	addi	x15,x2,384
   1503e:	454eb8cf          	0x454eb8cf
   15042:	5350                	lw	x12,36(x14)
   15044:	9d5e                	add	x26,x26,x23
   15046:	d7dc                	sw	x15,44(x15)
   15048:	0000                	unimp
   1504a:	3638                	fld	f14,104(x12)
   1504c:	464e                	lw	x12,208(x2)
   1504e:	584c                	lw	x11,52(x8)
   15050:	0020                	addi	x8,x2,8
   15052:	0204                	addi	x9,x2,256
   15054:	3f38                	fld	f14,120(x14)
   15056:	0c00                	addi	x8,x2,528
   15058:	2a56ed03          	0x2a56ed03
   1505c:	0211                	addi	x4,x4,4
   1505e:	f82c                	fsw	f11,112(x8)
   15060:	6d55                	lui	x26,0x15
   15062:	4250                	lw	x12,4(x12)
   15064:	9d5e                	add	x26,x26,x23
   15066:	dadc                	sw	x15,52(x13)
   15068:	0000                	unimp
   1506a:	54577307          	0x54577307
   1506e:	2049                	jal	150f0 <raw_data+0x3cb0>
   15070:	0020                	addi	x8,x2,8
   15072:	0114                	addi	x13,x2,128
   15074:	06007107          	0x6007107
   15078:	78bbed03          	0x78bbed03
   1507c:	5fe8                	lw	x10,124(x15)
   1507e:	454ef327          	0x454ef327
   15082:	4250                	lw	x12,4(x12)
   15084:	9d5e                	add	x26,x26,x23
   15086:	e2dc                	fsw	f15,4(x13)
   15088:	0000                	unimp
   1508a:	3610                	fld	f12,40(x12)
   1508c:	20585053          	0x20585053
   15090:	0020                	addi	x8,x2,8
   15092:	0222                	slli	x4,x4,0x8
   15094:	2b10                	fld	f12,16(x14)
   15096:	0800                	addi	x8,x2,16
   15098:	73eff003          	0x73eff003
   1509c:	f881b6ab          	0xf881b6ab
   150a0:	454e                	lw	x10,208(x2)
   150a2:	9d5e5343          	0x9d5e5343
   150a6:	e7dc                	fsw	f15,12(x15)
   150a8:	0000                	unimp
   150aa:	20465413          	0x20465413
   150ae:	2020                	fld	f8,64(x8)
   150b0:	0020                	addi	x8,x2,8
   150b2:	60130207          	0x60130207
   150b6:	0500                	addi	x8,x2,640
   150b8:	3c68f403          	0x3c68f403
   150bc:	e131                	bnez	x10,15100 <raw_data+0x3cc0>
   150be:	454eefbf 9d5e4243 	0x9d5e4243454eefbf
   150c6:	f8dc                	fsw	f15,52(x9)
   150c8:	0000                	unimp
   150ca:	ad25                	j	15702 <raw_data+0x42c2>
   150cc:	474f4f47          	fmsub.q	f30,f30,f20,f8,rmm
   150d0:	004c                	addi	x11,x2,4
   150d2:	0111                	addi	x2,x2,4
   150d4:	c025                	beqz	x8,15134 <raw_data+0x3cf4>
   150d6:	0400                	addi	x8,x2,512
   150d8:	4511fa03          	0x4511fa03
   150dc:	74e8                	flw	f10,108(x9)
   150de:	d0ff                	0xd0ff
   150e0:	454e                	lw	x10,208(x2)
   150e2:	9d5e5343          	0x9d5e5343
   150e6:	ffdc                	fsw	f15,60(x15)
   150e8:	0000                	unimp
   150ea:	e532                	fsw	f12,136(x2)
   150ec:	2046                	fld	f0,80(x2)
   150ee:	2020                	fld	f8,64(x8)
   150f0:	0020                	addi	x8,x2,8
   150f2:	0118                	addi	x14,x2,128
   150f4:	d432                	sw	x12,40(x2)
   150f6:	0800                	addi	x8,x2,16
   150f8:	96bbfb03          	0x96bbfb03
   150fc:	05fb90cb          	0x5fb90cb
   15100:	454e                	lw	x10,208(x2)
   15102:	9d5e4243          	0x9d5e4243
   15106:	06dd                	addi	x13,x13,23
   15108:	0000                	unimp
   1510a:	0b1c                	addi	x15,x2,400
   1510c:	2046                	fld	f0,80(x2)
   1510e:	2020                	fld	f8,64(x8)
   15110:	0020                	addi	x8,x2,8
   15112:	051c0107          	0x51c0107
   15116:	0400                	addi	x8,x2,512
   15118:	9907fd03          	0x9907fd03
   1511c:	3fb9d9cb          	fnmsub.q	f19,f19,f27,f7,unknown
   15120:	454e                	lw	x10,208(x2)
   15122:	9d5e4243          	0x9d5e4243
   15126:	09dd                	addi	x19,x19,23
   15128:	0000                	unimp
   1512a:	4d594917          	auipc	x18,0x4d594
   1512e:	2020                	fld	f8,64(x8)
   15130:	0020                	addi	x8,x2,8
   15132:	0216                	slli	x4,x4,0x5
   15134:	06004817          	auipc	x16,0x6004
   15138:	30f3fd03          	0x30f3fd03
   1513c:	dae6                	sw	x25,116(x2)
   1513e:	5cb1                	li	x25,-20
   15140:	454e                	lw	x10,208(x2)
   15142:	9d5e5343          	0x9d5e5343
   15146:	13dd                	addi	x7,x7,-9
   15148:	0000                	unimp
   1514a:	4e1a                	lw	x28,132(x2)
   1514c:	20585053          	0x20585053
   15150:	0020                	addi	x8,x2,8
   15152:	0208                	addi	x10,x2,256
   15154:	621a                	flw	f4,132(x2)
   15156:	0700                	addi	x8,x2,896
   15158:	05aafe03          	0x5aafe03
   1515c:	0bee                	slli	x23,x23,0x1b
   1515e:	00bc                	addi	x15,x2,72
   15160:	454e                	lw	x10,208(x2)
   15162:	9d5e4243          	0x9d5e4243
   15166:	19dd                	addi	x19,x19,-9
   15168:	0000                	unimp
   1516a:	cb00                	sw	x8,16(x14)
   1516c:	4141                	li	x2,16
   1516e:	4c50                	lw	x12,28(x8)
   15170:	0020                	addi	x8,x2,8
   15172:	dd000217          	auipc	x4,0xdd000
   15176:	0800                	addi	x8,x2,16
   15178:	0004                	0x4
   1517a:	d690                	sw	x12,40(x13)
   1517c:	bdfa                	fsd	f30,248(x2)
   1517e:	8ff4                	0x8ff4
   15180:	454e                	lw	x10,208(x2)
   15182:	5350                	lw	x12,36(x14)
   15184:	9d5e                	add	x26,x26,x23
   15186:	22dd                	jal	1536c <raw_data+0x3f2c>
   15188:	0000                	unimp
   1518a:	0b2e                	slli	x22,x22,0xb
   1518c:	5345                	li	x6,-15
   1518e:	2020                	fld	f8,64(x8)
   15190:	0020                	addi	x8,x2,8
   15192:	0216                	slli	x4,x4,0x5
   15194:	002e                	c.slli	x0,0xb
   15196:	0800                	addi	x8,x2,16
   15198:	0304                	addi	x9,x2,384
   1519a:	4d96                	lw	x27,68(x2)
   1519c:	bd9e5367          	0xbd9e5367
   151a0:	454e                	lw	x10,208(x2)
   151a2:	9d5e4243          	0x9d5e4243
   151a6:	2add                	jal	1539c <raw_data+0x3f5c>
   151a8:	0000                	unimp
   151aa:	b631                	j	14cb6 <raw_data+0x3876>
   151ac:	464e                	lw	x12,208(x2)
   151ae:	584c                	lw	x11,52(x8)
   151b0:	0020                	addi	x8,x2,8
   151b2:	ca31021b          	0xca31021b
   151b6:	0900                	addi	x8,x2,144
   151b8:	0504                	addi	x9,x2,640
   151ba:	9f2a                	add	x30,x30,x10
   151bc:	e60d7ad7          	0xe60d7ad7
   151c0:	454e                	lw	x10,208(x2)
   151c2:	4250                	lw	x12,4(x12)
   151c4:	9d5e                	add	x26,x26,x23
   151c6:	2fdd                	jal	159bc <__global_pointer$+0x264>
   151c8:	0000                	unimp
   151ca:	41415033          	sra	x0,x2,x20
   151ce:	4c50                	lw	x12,28(x8)
   151d0:	0020                	addi	x8,x2,8
   151d2:	011f 6433 0200      	0x2006433011f
   151d8:	0504                	addi	x9,x2,640
   151da:	7ee4                	flw	f9,124(x13)
   151dc:	62f2                	flw	f5,28(x2)
   151de:	8729                	srai	x14,x14,0xa
   151e0:	454e                	lw	x10,208(x2)
   151e2:	5350                	lw	x12,36(x14)
   151e4:	9d5e                	add	x26,x26,x23
   151e6:	32dd                	jal	14bcc <raw_data+0x378c>
   151e8:	0000                	unimp
   151ea:	2d21                	jal	15802 <__global_pointer$+0xaa>
   151ec:	2046                	fld	f0,80(x2)
   151ee:	2020                	fld	f8,64(x8)
   151f0:	0020                	addi	x8,x2,8
   151f2:	2321010b          	0x2321010b
   151f6:	0d00                	addi	x8,x2,656
   151f8:	0704                	addi	x9,x2,896
   151fa:	6dd5                	lui	x27,0x15
   151fc:	29dc7cb3          	0x29dc7cb3
   15200:	454e                	lw	x10,208(x2)
   15202:	9d5e5343          	0x9d5e5343
   15206:	39dd                	jal	14efc <raw_data+0x3abc>
   15208:	0000                	unimp
   1520a:	5457e717          	auipc	x14,0x5457e
   1520e:	2049                	jal	15290 <raw_data+0x3e50>
   15210:	0020                	addi	x8,x2,8
   15212:	0214                	addi	x13,x2,256
   15214:	0900f117          	auipc	x2,0x900f
   15218:	0a04                	addi	x9,x2,272
   1521a:	74a0904b          	0x74a0904b
   1521e:	70f9                	lui	x1,0xffffe
   15220:	454e                	lw	x10,208(x2)
   15222:	9d5e5343          	0x9d5e5343
   15226:	3fdd                	jal	1521c <raw_data+0x3ddc>
   15228:	0000                	unimp
   1522a:	9e29                	0x9e29
   1522c:	20585053          	0x20585053
   15230:	0020                	addi	x8,x2,8
   15232:	010e                	slli	x2,x2,0x3
   15234:	a629                	j	1553e <raw_data+0x40fe>
   15236:	0700                	addi	x8,x2,896
   15238:	0b04                	addi	x9,x2,400
   1523a:	a112944b          	fnmsub.s	f8,f5,f17,f20,rtz
   1523e:	7fb2                	flw	f31,44(x2)
   15240:	454e                	lw	x10,208(x2)
   15242:	5350                	lw	x12,36(x14)
   15244:	9d5e                	add	x26,x26,x23
   15246:	42dd                	li	x5,23
   15248:	0000                	unimp
   1524a:	cb28                	sw	x10,80(x14)
   1524c:	464e                	lw	x12,208(x2)
   1524e:	584c                	lw	x11,52(x8)
   15250:	0020                	addi	x8,x2,8
   15252:	ba280117          	auipc	x2,0xba280
   15256:	0400                	addi	x8,x2,512
   15258:	0d04                	addi	x9,x2,656
   1525a:	5f14                	lw	x13,56(x14)
   1525c:	035e7a63          	bgeu	x28,x21,15290 <raw_data+0x3e50>
   15260:	454e                	lw	x10,208(x2)
   15262:	9d5e4243          	0x9d5e4243
   15266:	4add                	li	x21,23
   15268:	0000                	unimp
   1526a:	b402                	fsd	f0,40(x2)
   1526c:	2046                	fld	f0,80(x2)
   1526e:	2020                	fld	f8,64(x8)
   15270:	0020                	addi	x8,x2,8
   15272:	0219                	addi	x4,x4,6
   15274:	ad02                	fsd	f0,152(x2)
   15276:	0b00                	addi	x8,x2,400
   15278:	0d04                	addi	x9,x2,656
   1527a:	9bf1                	andi	x15,x15,-4
   1527c:	6d81                	0x6d81
   1527e:	fba8                	fsw	f10,112(x15)
   15280:	454e                	lw	x10,208(x2)
   15282:	9d5e5343          	0x9d5e5343
   15286:	58dd                	li	x17,-9
   15288:	0000                	unimp
   1528a:	530e                	lw	x6,224(x2)
   1528c:	4141                	li	x2,16
   1528e:	4c50                	lw	x12,28(x8)
   15290:	0020                	addi	x8,x2,8
   15292:	011f 510e 0d00      	0xd00510e011f
   15298:	1204                	addi	x9,x2,288
   1529a:	adbc                	fsd	f15,88(x11)
   1529c:	7a12                	flw	f20,36(x2)
   1529e:	454e834b          	0x454e834b
   152a2:	9d5e5343          	0x9d5e5343
   152a6:	5ddd                	li	x27,-9
   152a8:	0000                	unimp
   152aa:	6d1f 4141 4c50      	0x4c5041416d1f
   152b0:	0020                	addi	x8,x2,8
   152b2:	5f1f0217          	auipc	x4,0x5f1f0
   152b6:	0400                	addi	x8,x2,512
   152b8:	1504                	addi	x9,x2,672
   152ba:	2b7d                	jal	15878 <__global_pointer$+0x120>
   152bc:	fdf4                	fsw	f13,124(x11)
   152be:	3d64                	fld	f9,248(x10)
   152c0:	7642                	flw	f12,48(x2)
   152c2:	4250                	lw	x12,4(x12)
   152c4:	9d5e                	add	x26,x26,x23
   152c6:	62dd                	lui	x5,0x17
   152c8:	0000                	unimp
   152ca:	a60e                	fsd	f3,264(x2)
   152cc:	20495457          	0x20495457
   152d0:	0020                	addi	x8,x2,8
   152d2:	0104                	addi	x9,x2,128
   152d4:	a40e                	fsd	f3,8(x2)
   152d6:	0300                	addi	x8,x2,384
   152d8:	1604                	addi	x9,x2,800
   152da:	6171                	addi	x2,x2,336
   152dc:	b23e                	fsd	f15,288(x2)
   152de:	3218                	fld	f14,32(x12)
   152e0:	454e                	lw	x10,208(x2)
   152e2:	4250                	lw	x12,4(x12)
   152e4:	9d5e                	add	x26,x26,x23
   152e6:	6bdd                	lui	x23,0x17
   152e8:	0000                	unimp
   152ea:	8521                	srai	x10,x10,0x8
   152ec:	20595053          	0x20595053
   152f0:	0020                	addi	x8,x2,8
   152f2:	7b210223          	sb	x18,1956(x2) # ba2959f6 <__BSS_END__+0xba27fa9e>
   152f6:	0a00                	addi	x8,x2,272
   152f8:	1904                	addi	x9,x2,176
   152fa:	e93c                	fsw	f15,80(x10)
   152fc:	75e328b7          	lui	x17,0x75e32
   15300:	454e                	lw	x10,208(x2)
   15302:	5350                	lw	x12,36(x14)
   15304:	9d5e                	add	x26,x26,x23
   15306:	72dd                	lui	x5,0xffff7
   15308:	0000                	unimp
   1530a:	5457a52b          	0x5457a52b
   1530e:	2049                	jal	15390 <raw_data+0x3f50>
   15310:	0020                	addi	x8,x2,8
   15312:	0218                	addi	x14,x2,256
   15314:	0500ab2b          	0x500ab2b
   15318:	1c04                	addi	x9,x2,560
   1531a:	82d856c7          	fmsub.d	f13,f16,f13,f16,unknown
   1531e:	f201                	bnez	x12,1521e <raw_data+0x3dde>
   15320:	454e                	lw	x10,208(x2)
   15322:	5350                	lw	x12,36(x14)
   15324:	9d5e                	add	x26,x26,x23
   15326:	7cdd                	lui	x25,0xffff7
   15328:	0000                	unimp
   1532a:	9010                	0x9010
   1532c:	20495457          	0x20495457
   15330:	0020                	addi	x8,x2,8
   15332:	a2100207          	0xa2100207
   15336:	0300                	addi	x8,x2,384
   15338:	1f04                	addi	x9,x2,944
   1533a:	10c6                	slli	x1,x1,0x31
   1533c:	916f096b          	0x916f096b
   15340:	454e                	lw	x10,208(x2)
   15342:	9d5e4243          	0x9d5e4243
   15346:	82dd                	srli	x13,x13,0x17
   15348:	0000                	unimp
   1534a:	bd36                	fsd	f13,184(x2)
   1534c:	20495457          	0x20495457
   15350:	0020                	addi	x8,x2,8
   15352:	0215                	addi	x4,x4,5
   15354:	b836                	fsd	f13,48(x2)
   15356:	0500                	addi	x8,x2,640
   15358:	2204                	fld	f9,0(x12)
   1535a:	d6b1                	beqz	x13,152a6 <raw_data+0x3e66>
   1535c:	3a84                	fld	f9,48(x13)
   1535e:	6618                	flw	f14,8(x12)
   15360:	454e                	lw	x10,208(x2)
   15362:	9d5e4243          	0x9d5e4243
   15366:	87dd                	srai	x15,x15,0x17
   15368:	0000                	unimp
   1536a:	4f39                	li	x30,14
   1536c:	474f4f47          	fmsub.q	f30,f30,f20,f8,rmm
   15370:	004c                	addi	x11,x2,4
   15372:	0119                	addi	x2,x2,6
   15374:	5839                	li	x16,-18
   15376:	0600                	addi	x8,x2,768
   15378:	2404                	fld	f9,8(x8)
   1537a:	1711414f          	fnmadd.q	f2,f2,f17,f2,rmm
   1537e:	dccd                	beqz	x9,15338 <raw_data+0x3ef8>
   15380:	454e                	lw	x10,208(x2)
   15382:	5350                	lw	x12,36(x14)
   15384:	9d5e                	add	x26,x26,x23
   15386:	8bdd                	andi	x15,x15,23
   15388:	0000                	unimp
   1538a:	6b08                	flw	f10,16(x14)
   1538c:	464e                	lw	x12,208(x2)
   1538e:	584c                	lw	x11,52(x8)
   15390:	0020                	addi	x8,x2,8
   15392:	0215                	addi	x4,x4,5
   15394:	5b08                	lw	x10,48(x14)
   15396:	0600                	addi	x8,x2,768
   15398:	2604                	fld	f9,8(x12)
   1539a:	4ee2bfab          	0x4ee2bfab
   1539e:	cc6a                	sw	x26,24(x2)
   153a0:	454e                	lw	x10,208(x2)
   153a2:	9d5e5343          	0x9d5e5343
   153a6:	94dd                	srai	x9,x9,0x37
   153a8:	0000                	unimp
   153aa:	fc32                	fsw	f12,56(x2)
   153ac:	4141                	li	x2,16
   153ae:	4c50                	lw	x12,28(x8)
   153b0:	0020                	addi	x8,x2,8
   153b2:	0209                	addi	x4,x4,2
   153b4:	f532                	fsw	f12,168(x2)
   153b6:	0d00                	addi	x8,x2,656
   153b8:	2704                	fld	f9,8(x14)
   153ba:	1364                	addi	x9,x2,428
   153bc:	4245                	li	x4,17
   153be:	50c2                	lw	x1,48(x2)
   153c0:	454e                	lw	x10,208(x2)
   153c2:	9d5e4243          	0x9d5e4243
   153c6:	97dd                	srai	x15,x15,0x37
   153c8:	0000                	unimp
   153ca:	df2e                	sw	x11,188(x2)
   153cc:	464e                	lw	x12,208(x2)
   153ce:	584c                	lw	x11,52(x8)
   153d0:	0020                	addi	x8,x2,8
   153d2:	cd2e0217          	auipc	x4,0xcd2e0
   153d6:	0700                	addi	x8,x2,896
   153d8:	2a04                	fld	f9,16(x12)
   153da:	c4bc654f          	0xc4bc654f
   153de:	c495                	beqz	x9,1540a <raw_data+0x3fca>
   153e0:	454e                	lw	x10,208(x2)
   153e2:	9d5e4243          	0x9d5e4243
   153e6:	a1dd                	j	158cc <__global_pointer$+0x174>
   153e8:	0000                	unimp
   153ea:	7106                	flw	f2,96(x2)
   153ec:	4d59                	li	x26,22
   153ee:	2020                	fld	f8,64(x8)
   153f0:	0020                	addi	x8,x2,8
   153f2:	0110                	addi	x12,x2,128
   153f4:	6306                	flw	f6,64(x2)
   153f6:	0a00                	addi	x8,x2,272
   153f8:	2a04                	fld	f9,16(x12)
   153fa:	79fd                	lui	x19,0xfffff
   153fc:	2d9a                	fld	f27,384(x2)
   153fe:	454e69a3          	0x454e69a3
   15402:	9d5e5343          	0x9d5e5343
   15406:	aadd                	j	155fc <raw_data+0x41bc>
   15408:	0000                	unimp
   1540a:	4610                	lw	x12,8(x12)
   1540c:	20585053          	0x20585053
   15410:	0020                	addi	x8,x2,8
   15412:	0214                	addi	x13,x2,256
   15414:	3a10                	fld	f12,48(x12)
   15416:	0200                	addi	x8,x2,256
   15418:	2c04                	fld	f9,24(x8)
   1541a:	e2a2                	fsw	f8,68(x2)
   1541c:	01ce                	slli	x3,x3,0x13
   1541e:	1588                	addi	x10,x2,736
   15420:	454e                	lw	x10,208(x2)
   15422:	5350                	lw	x12,36(x14)
   15424:	9d5e                	add	x26,x26,x23
   15426:	afdd                	j	15c1c <__global_pointer$+0x4c4>
   15428:	0000                	unimp
   1542a:	710e                	flw	f2,224(x2)
   1542c:	20595053          	0x20595053
   15430:	0020                	addi	x8,x2,8
   15432:	020a                	slli	x4,x4,0x2
   15434:	810e                	mv	x2,x3
   15436:	0700                	addi	x8,x2,896
   15438:	2f04                	fld	f9,24(x14)
   1543a:	859816d7          	0x859816d7
   1543e:	ae55                	j	157f2 <__global_pointer$+0x9a>
   15440:	454e                	lw	x10,208(x2)
   15442:	9d5e4243          	0x9d5e4243
   15446:	b9dd                	j	1513c <raw_data+0x3cfc>
   15448:	0000                	unimp
   1544a:	0e20                	addi	x8,x2,792
   1544c:	474f4f47          	fmsub.q	f30,f30,f20,f8,rmm
   15450:	004c                	addi	x11,x2,4
   15452:	1a200203          	lb	x4,418(x0) # 1a2 <_start-0xfede>
   15456:	0700                	addi	x8,x2,896
   15458:	3204                	fld	f9,32(x12)
   1545a:	105a                	c.slli	x0,0x36
   1545c:	6d3e                	flw	f26,204(x2)
   1545e:	454e481b          	0x454e481b
   15462:	5350                	lw	x12,36(x14)
   15464:	9d5e                	add	x26,x26,x23
   15466:	bfdd                	j	1545c <raw_data+0x401c>
   15468:	0000                	unimp
   1546a:	bc15                	j	14e9e <raw_data+0x3a5e>
   1546c:	20495457          	0x20495457
   15470:	0020                	addi	x8,x2,8
   15472:	0220                	addi	x8,x2,264
   15474:	c715                	beqz	x14,154a0 <raw_data+0x4060>
   15476:	0300                	addi	x8,x2,384
   15478:	3304                	fld	f9,32(x14)
   1547a:	24a9                	jal	156c4 <raw_data+0x4284>
   1547c:	25a816eb          	0x25a816eb
   15480:	454e                	lw	x10,208(x2)
   15482:	5350                	lw	x12,36(x14)
   15484:	9d5e                	add	x26,x26,x23
   15486:	c9dd                	beqz	x11,1553c <raw_data+0x40fc>
   15488:	0000                	unimp
   1548a:	0b18                	addi	x14,x2,400
   1548c:	464e                	lw	x12,208(x2)
   1548e:	584c                	lw	x11,52(x8)
   15490:	0020                	addi	x8,x2,8
   15492:	0216                	slli	x4,x4,0x5
   15494:	1518                	addi	x14,x2,672
   15496:	0c00                	addi	x8,x2,528
   15498:	3504                	fld	f9,40(x10)
   1549a:	f8ee                	fsw	f27,112(x2)
   1549c:	893c                	0x893c
   1549e:	69f2                	flw	f19,28(x2)
   154a0:	454e                	lw	x10,208(x2)
   154a2:	4250                	lw	x12,4(x12)
   154a4:	9d5e                	add	x26,x26,x23
   154a6:	d1dd                	beqz	x11,1544c <raw_data+0x400c>
   154a8:	0000                	unimp
   154aa:	e335                	bnez	x14,1550e <raw_data+0x40ce>
   154ac:	4141                	li	x2,16
   154ae:	4c50                	lw	x12,28(x8)
   154b0:	0020                	addi	x8,x2,8
   154b2:	0214                	addi	x13,x2,256
   154b4:	f235                	bnez	x12,15418 <raw_data+0x3fd8>
   154b6:	0600                	addi	x8,x2,768
   154b8:	3704                	fld	f9,40(x14)
   154ba:	6245                	lui	x4,0x11
   154bc:	dc5e                	sw	x23,56(x2)
   154be:	454ec603          	lbu	x12,1108(x29)
   154c2:	9d5e4243          	0x9d5e4243
   154c6:	d4dd                	beqz	x9,15474 <raw_data+0x4034>
   154c8:	0000                	unimp
   154ca:	050e                	slli	x10,x10,0x3
   154cc:	4141                	li	x2,16
   154ce:	4c50                	lw	x12,28(x8)
   154d0:	0020                	addi	x8,x2,8
   154d2:	120e011b          	0x120e011b
   154d6:	0500                	addi	x8,x2,640
   154d8:	3904                	fld	f9,48(x10)
   154da:	bc21                	j	14ef2 <raw_data+0x3ab2>
   154dc:	8cd4                	0x8cd4
   154de:	9055                	srli	x8,x8,0x35
   154e0:	454e                	lw	x10,208(x2)
   154e2:	9d5e4243          	0x9d5e4243
   154e6:	dadd                	beqz	x13,1549c <raw_data+0x405c>
   154e8:	0000                	unimp
   154ea:	5904                	lw	x9,48(x10)
   154ec:	20495457          	0x20495457
   154f0:	0020                	addi	x8,x2,8
   154f2:	0219                	addi	x4,x4,6
   154f4:	5d04                	lw	x9,56(x10)
   154f6:	0300                	addi	x8,x2,384
   154f8:	3b04                	fld	f9,48(x14)
   154fa:	c0936a3b          	0xc0936a3b
   154fe:	454e0737          	lui	x14,0x454e0
   15502:	9d5e4243          	0x9d5e4243
   15506:	e1dd                	bnez	x11,155ac <raw_data+0x416c>
   15508:	0000                	unimp
   1550a:	9401                	srai	x8,x8,0x20
   1550c:	20585053          	0x20585053
   15510:	0020                	addi	x8,x2,8
   15512:	021e                	slli	x4,x4,0x7
   15514:	9101                	srli	x10,x10,0x20
   15516:	0d00                	addi	x8,x2,656
   15518:	3e04                	fld	f9,56(x12)
   1551a:	dd00                	sw	x8,56(x10)
   1551c:	c1c875cf          	fnmadd.s	f11,f16,f28,f24
   15520:	454e                	lw	x10,208(x2)
   15522:	9d5e4243          	0x9d5e4243
   15526:	eadd                	bnez	x13,155dc <raw_data+0x419c>
   15528:	0000                	unimp
   1552a:	d002                	sw	x0,32(x2)
   1552c:	464e                	lw	x12,208(x2)
   1552e:	584c                	lw	x11,52(x8)
   15530:	0020                	addi	x8,x2,8
   15532:	0220                	addi	x8,x2,264
   15534:	e102                	fsw	f0,128(x2)
   15536:	0a00                	addi	x8,x2,272
   15538:	3f04                	fld	f9,56(x14)
   1553a:	02dc                	addi	x15,x2,324
   1553c:	e2e12943          	fmadd.d	f18,f2,f14,f28,rdn
   15540:	454e                	lw	x10,208(x2)
   15542:	9d5e4243          	0x9d5e4243
   15546:	eedd                	bnez	x13,15604 <raw_data+0x41c4>
   15548:	0000                	unimp
   1554a:	4524                	lw	x9,72(x10)
   1554c:	464e                	lw	x12,208(x2)
   1554e:	584c                	lw	x11,52(x8)
   15550:	0020                	addi	x8,x2,8
   15552:	55240123          	sb	x18,1346(x8)
   15556:	0500                	addi	x8,x2,640
   15558:	4104                	lw	x9,0(x10)
   1555a:	5b30                	lw	x12,112(x14)
   1555c:	e4b2                	fsw	f12,72(x2)
   1555e:	c8bc                	sw	x15,80(x9)
   15560:	454e                	lw	x10,208(x2)
   15562:	4250                	lw	x12,4(x12)
   15564:	9d5e                	add	x26,x26,x23
   15566:	f3dd                	bnez	x15,1550c <raw_data+0x40cc>
   15568:	0000                	unimp
   1556a:	1535                	addi	x10,x10,-19
   1556c:	464e                	lw	x12,208(x2)
   1556e:	584c                	lw	x11,52(x8)
   15570:	0020                	addi	x8,x2,8
   15572:	1e35010b          	0x1e35010b
   15576:	0300                	addi	x8,x2,384
   15578:	4204                	lw	x9,0(x12)
   1557a:	c725                	beqz	x14,155e2 <raw_data+0x41a2>
   1557c:	fbe1                	bnez	x15,1554c <raw_data+0x410c>
   1557e:	53f2                	lw	x7,60(x2)
   15580:	454e                	lw	x10,208(x2)
   15582:	9d5e5343          	0x9d5e5343
   15586:	fbdd                	bnez	x15,1553c <raw_data+0x40fc>
   15588:	0000                	unimp
   1558a:	4f477403          	0x4f477403
   1558e:	004c474f          	fnmadd.s	f14,f24,f4,f0,rmm
   15592:	8803010b          	0x8803010b
   15596:	0300                	addi	x8,x2,384
   15598:	4204                	lw	x9,0(x12)
   1559a:	47ae                	lw	x15,200(x2)
   1559c:	9ce2                	add	x25,x25,x24
   1559e:	f00c                	fsw	f11,32(x8)
   155a0:	454e                	lw	x10,208(x2)
   155a2:	4250                	lw	x12,4(x12)
   155a4:	9d5e                	add	x26,x26,x23
   155a6:	fedd                	bnez	x13,15564 <raw_data+0x4124>
   155a8:	0000                	unimp
   155aa:	6810                	flw	f12,16(x8)
   155ac:	4d59                	li	x26,22
   155ae:	2020                	fld	f8,64(x8)
   155b0:	0020                	addi	x8,x2,8
   155b2:	0209                	addi	x4,x4,2
   155b4:	6010                	flw	f12,0(x8)
   155b6:	0d00                	addi	x8,x2,656
   155b8:	4304                	lw	x9,0(x14)
   155ba:	f86121c7          	fmsub.s	f3,f2,f6,f31,rdn
   155be:	3f7d                	jal	1557c <raw_data+0x413c>
   155c0:	454e                	lw	x10,208(x2)
   155c2:	9d5e5343          	0x9d5e5343
   155c6:	04de                	slli	x9,x9,0x17
   155c8:	0000                	unimp
   155ca:	832a                	mv	x6,x10
   155cc:	4d59                	li	x26,22
   155ce:	2020                	fld	f8,64(x8)
   155d0:	0020                	addi	x8,x2,8
   155d2:	0211                	addi	x4,x4,4
   155d4:	772a                	flw	f14,168(x2)
   155d6:	0500                	addi	x8,x2,640
   155d8:	4704                	lw	x9,8(x14)
   155da:	f004                	fsw	f9,32(x8)
   155dc:	90f5                	srli	x9,x9,0x3d
   155de:	618c                	flw	f11,0(x11)
   155e0:	454e                	lw	x10,208(x2)
   155e2:	4250                	lw	x12,4(x12)
   155e4:	9d5e                	add	x26,x26,x23
   155e6:	07de                	slli	x15,x15,0x17
   155e8:	0000                	unimp
   155ea:	3f21                	jal	15502 <raw_data+0x40c2>
   155ec:	2046                	fld	f0,80(x2)
   155ee:	2020                	fld	f8,64(x8)
   155f0:	0020                	addi	x8,x2,8
   155f2:	0105                	addi	x2,x2,1
   155f4:	4b21                	li	x22,8
   155f6:	0700                	addi	x8,x2,896
   155f8:	4804                	lw	x9,16(x8)
   155fa:	6975                	lui	x18,0x1d
   155fc:	205f 52aa 454e      	0x454e52aa205f
   15602:	9d5e5343          	0x9d5e5343
   15606:	19de                	slli	x19,x19,0x37
   15608:	0000                	unimp
   1560a:	9a2a                	add	x20,x20,x10
   1560c:	4d59                	li	x26,22
   1560e:	2020                	fld	f8,64(x8)
   15610:	0020                	addi	x8,x2,8
   15612:	021d                	addi	x4,x4,7
   15614:	932a                	add	x6,x6,x10
   15616:	0a00                	addi	x8,x2,272
   15618:	4c04                	lw	x9,24(x8)
   1561a:	5d94                	lw	x13,56(x11)
   1561c:	d9a6                	sw	x9,240(x2)
   1561e:	8f61                	and	x14,x14,x8
   15620:	454e                	lw	x10,208(x2)
   15622:	5350                	lw	x12,36(x14)
   15624:	9d5e                	add	x26,x26,x23
   15626:	1fde                	slli	x31,x31,0x37
   15628:	0000                	unimp
   1562a:	f212                	fsw	f4,36(x2)
   1562c:	20595053          	0x20595053
   15630:	0020                	addi	x8,x2,8
   15632:	010e                	slli	x2,x2,0x3
   15634:	f512                	fsw	f4,168(x2)
   15636:	0500                	addi	x8,x2,640
   15638:	4f04                	lw	x9,24(x14)
   1563a:	9cf4                	0x9cf4
   1563c:	06fc                	addi	x15,x2,844
   1563e:	454edeaf          	0x454edeaf
   15642:	5350                	lw	x12,36(x14)
   15644:	9d5e                	add	x26,x26,x23
   15646:	23de                	fld	f7,464(x2)
   15648:	0000                	unimp
   1564a:	4d59940f          	0x4d59940f
   1564e:	2020                	fld	f8,64(x8)
   15650:	0020                	addi	x8,x2,8
   15652:	011d                	addi	x2,x2,7
   15654:	0500910f          	0x500910f
   15658:	5204                	lw	x9,32(x12)
   1565a:	d42141f3          	0xd42141f3
   1565e:	c6d9                	beqz	x13,156ec <raw_data+0x42ac>
   15660:	454e                	lw	x10,208(x2)
   15662:	4250                	lw	x12,4(x12)
   15664:	9d5e                	add	x26,x26,x23
   15666:	28de                	fld	f17,464(x2)
   15668:	0000                	unimp
   1566a:	b41c                	fsd	f15,40(x8)
   1566c:	20595053          	0x20595053
   15670:	0020                	addi	x8,x2,8
   15672:	0214                	addi	x13,x2,256
   15674:	a61c                	fsd	f15,8(x12)
   15676:	0800                	addi	x8,x2,16
   15678:	5404                	lw	x9,40(x8)
   1567a:	1d2e                	slli	x26,x26,0x2b
   1567c:	100d                	c.nop	-29
   1567e:	aa91                	j	157d2 <__global_pointer$+0x7a>
   15680:	454e                	lw	x10,208(x2)
   15682:	5350                	lw	x12,36(x14)
   15684:	9d5e                	add	x26,x26,x23
   15686:	2cde                	fld	f25,464(x2)
   15688:	0000                	unimp
   1568a:	5029                	c.li	x0,-22
   1568c:	4d59                	li	x26,22
   1568e:	2020                	fld	f8,64(x8)
   15690:	0020                	addi	x8,x2,8
   15692:	010a                	slli	x2,x2,0x2
   15694:	6329                	lui	x6,0xa
   15696:	0600                	addi	x8,x2,768
   15698:	5604                	lw	x9,40(x12)
   1569a:	c774                	sw	x13,76(x14)
   1569c:	55ee                	lw	x11,248(x2)
   1569e:	454ef73f 9d5e4250 	0x9d5e4250454ef73f
   156a6:	34de                	fld	f9,496(x2)
   156a8:	0000                	unimp
   156aa:	2101                	jal	15aaa <__global_pointer$+0x352>
   156ac:	474f4f47          	fmsub.q	f30,f30,f20,f8,rmm
   156b0:	004c                	addi	x11,x2,4
   156b2:	0212                	slli	x4,x4,0x4
   156b4:	1d01                	addi	x26,x26,-32
   156b6:	0900                	addi	x8,x2,144
   156b8:	5804                	lw	x9,48(x8)
   156ba:	8758                	0x8758
   156bc:	5c5c                	lw	x15,60(x8)
   156be:	454e0cd3          	0x454e0cd3
   156c2:	4250                	lw	x12,4(x12)
   156c4:	9d5e                	add	x26,x26,x23
   156c6:	38de                	fld	f17,496(x2)
   156c8:	0000                	unimp
   156ca:	5d32                	lw	x26,44(x2)
   156cc:	20585053          	0x20585053
   156d0:	0020                	addi	x8,x2,8
   156d2:	4a320207          	0x4a320207
   156d6:	0900                	addi	x8,x2,144
   156d8:	5904                	lw	x9,48(x10)
   156da:	204d                	jal	1577c <__global_pointer$+0x24>
   156dc:	f3a8                	fsw	f10,96(x15)
   156de:	5084                	lw	x9,32(x9)
   156e0:	454e                	lw	x10,208(x2)
   156e2:	9d5e5343          	0x9d5e5343
   156e6:	46de                	lw	x13,212(x2)
   156e8:	0000                	unimp
   156ea:	6a02                	flw	f20,0(x2)
   156ec:	20585053          	0x20585053
   156f0:	0020                	addi	x8,x2,8
   156f2:	75020123          	sb	x16,1858(x4) # 11742 <raw_data+0x302>
   156f6:	0500                	addi	x8,x2,640
   156f8:	6004                	flw	f9,0(x8)
   156fa:	7ca5                	lui	x25,0xfffe9
   156fc:	d7d2                	sw	x20,236(x2)
   156fe:	3859                	jal	14f94 <raw_data+0x3b54>
   15700:	6548                	flw	f10,12(x10)
   15702:	5350                	lw	x12,36(x14)
   15704:	9d5e                	add	x26,x26,x23
   15706:	4cde                	lw	x25,212(x2)
   15708:	0000                	unimp
   1570a:	9712                	add	x14,x14,x4
   1570c:	464e                	lw	x12,208(x2)
   1570e:	584c                	lw	x11,52(x8)
   15710:	0020                	addi	x8,x2,8
   15712:	0220                	addi	x8,x2,264
   15714:	9612                	add	x12,x12,x4
   15716:	0500                	addi	x8,x2,640
   15718:	6204                	flw	f9,0(x12)
   1571a:	0d6c9553          	0xd6c9553
   1571e:	38f6                	fld	f17,376(x2)
   15720:	454e                	lw	x10,208(x2)
   15722:	4250                	lw	x12,4(x12)
   15724:	9d5e                	add	x26,x26,x23
   15726:	56de                	lw	x13,244(x2)
   15728:	0000                	unimp
   1572a:	cc20                	sw	x8,88(x8)
   1572c:	5345                	li	x6,-15
   1572e:	2020                	fld	f8,64(x8)
   15730:	0020                	addi	x8,x2,8
   15732:	0112                	slli	x2,x2,0x4
   15734:	c520                	sw	x8,72(x10)
   15736:	0800                	addi	x8,x2,16
   15738:	6404                	flw	f9,8(x8)
   1573a:	3669bba7          	fsd	f6,887(x19) # fffff377 <__BSS_END__+0xfffe941f>
   1573e:	8b30                	0x8b30
   15740:	454e                	lw	x10,208(x2)
   15742:	5350                	lw	x12,36(x14)
   15744:	9d5e                	add	x26,x26,x23
   15746:	60de                	flw	f1,212(x2)
   15748:	0000                	unimp
   1574a:	50532c27          	fsw	f5,1304(x6) # a518 <_start-0x5b68>
   1574e:	2058                	fld	f14,128(x8)
   15750:	0020                	addi	x8,x2,8
   15752:	021d                	addi	x4,x4,7
   15754:	05003927          	fsd	f16,82(x0) # 52 <_start-0x1002e>
   15758:	6604                	flw	f9,8(x12)
   1575a:	356d                	jal	15604 <raw_data+0x41c4>
   1575c:	adb1                	j	15db8 <__global_pointer$+0x660>
   1575e:	6ef5                	lui	x29,0x1d
   15760:	454e                	lw	x10,208(x2)
   15762:	9d5e5343          	0x9d5e5343
   15766:	6ade                	flw	f21,212(x2)
   15768:	0000                	unimp
   1576a:	ee39                	bnez	x12,157c8 <__global_pointer$+0x70>
   1576c:	2046                	fld	f0,80(x2)
   1576e:	2020                	fld	f8,64(x8)
   15770:	0020                	addi	x8,x2,8
   15772:	010e                	slli	x2,x2,0x3
   15774:	e739                	bnez	x14,157c2 <__global_pointer$+0x6a>
   15776:	0700                	addi	x8,x2,896
   15778:	6904                	flw	f9,16(x10)
   1577a:	5144a7f7          	0x5144a7f7
   1577e:	f554                	fsw	f13,44(x10)
   15780:	454e                	lw	x10,208(x2)
   15782:	9d5e4243          	0x9d5e4243
   15786:	6ede                	flw	f29,212(x2)
   15788:	0000                	unimp
   1578a:	464ecf2b          	0x464ecf2b
   1578e:	584c                	lw	x11,52(x8)
   15790:	0020                	addi	x8,x2,8
   15792:	0116                	slli	x2,x2,0x5
   15794:	0800d22b          	0x800d22b
   15798:	6d04                	flw	f9,24(x10)
   1579a:	dd6e                	sw	x27,184(x2)
   1579c:	0f20                	addi	x8,x2,920
   1579e:	93d5                	srli	x15,x15,0x35
   157a0:	454e                	lw	x10,208(x2)
   157a2:	9d5e4243          	0x9d5e4243
   157a6:	74de                	flw	f9,244(x2)
   157a8:	0000                	unimp
   157aa:	5a30                	lw	x12,112(x12)
   157ac:	4d59                	li	x26,22
   157ae:	2020                	fld	f8,64(x8)
   157b0:	0020                	addi	x8,x2,8
   157b2:	010a                	slli	x2,x2,0x2
   157b4:	5c30                	lw	x12,120(x8)
   157b6:	0500                	addi	x8,x2,640
   157b8:	6d04                	flw	f9,24(x10)
   157ba:	35d8                	fld	f14,168(x11)
   157bc:	567e1aa7          	0x567e1aa7
   157c0:	454e                	lw	x10,208(x2)
   157c2:	9d5e5343          	0x9d5e5343
   157c6:	7bde                	flw	f23,244(x2)
   157c8:	0000                	unimp
   157ca:	8919                	andi	x10,x10,6
   157cc:	5345                	li	x6,-15
   157ce:	2020                	fld	f8,64(x8)
   157d0:	0020                	addi	x8,x2,8
   157d2:	0209                	addi	x4,x4,2
   157d4:	8019                	srli	x8,x8,0x6
   157d6:	0400                	addi	x8,x2,512
   157d8:	6e04                	flw	f9,24(x12)
   157da:	dd71                	beqz	x10,157b6 <__global_pointer$+0x5e>
   157dc:	87f4                	0x87f4
   157de:	2e05                	jal	15b0e <__global_pointer$+0x3b6>
   157e0:	454e                	lw	x10,208(x2)
   157e2:	9d5e4243          	0x9d5e4243
   157e6:	7fde                	flw	f31,244(x2)
   157e8:	0000                	unimp
   157ea:	9d1c                	0x9d1c
   157ec:	20585053          	0x20585053
   157f0:	0020                	addi	x8,x2,8
   157f2:	010c                	addi	x11,x2,128
   157f4:	9b1c                	0x9b1c
   157f6:	0d00                	addi	x8,x2,656
   157f8:	6f04                	flw	f9,24(x14)
   157fa:	43ae                	lw	x7,200(x2)
   157fc:	98c889cf          	fnmadd.s	f19,f17,f12,f19,rne
   15800:	454e                	lw	x10,208(x2)
   15802:	5350                	lw	x12,36(x14)
   15804:	9d5e                	add	x26,x26,x23
   15806:	86de                	mv	x13,x23
   15808:	0000                	unimp
   1580a:	dd1e                	sw	x7,184(x2)
   1580c:	474f4f47          	fmsub.q	f30,f30,f20,f8,rmm
   15810:	004c                	addi	x11,x2,4
   15812:	0221                	addi	x4,x4,8
   15814:	d61e                	sw	x7,44(x2)
   15816:	0900                	addi	x8,x2,144
   15818:	7304                	flw	f9,32(x14)
   1581a:	d20d                	beqz	x12,1573c <raw_data+0x42fc>
   1581c:	4f0e                	lw	x30,192(x2)
   1581e:	bd75                	j	156da <raw_data+0x429a>
   15820:	454e                	lw	x10,208(x2)
   15822:	9d5e5343          	0x9d5e5343
   15826:	8ade                	mv	x21,x23
   15828:	0000                	unimp
   1582a:	1b2c                	addi	x11,x2,440
   1582c:	2046                	fld	f0,80(x2)
   1582e:	2020                	fld	f8,64(x8)
   15830:	0020                	addi	x8,x2,8
   15832:	0111                	addi	x2,x2,4
   15834:	182c                	addi	x11,x2,56
   15836:	0800                	addi	x8,x2,16
   15838:	7504                	flw	f9,40(x10)
   1583a:	115310e3          	bne	x6,x21,1613a <__BSS_END__+0x1e2>
   1583e:	409e                	lw	x1,196(x2)
   15840:	454e                	lw	x10,208(x2)
   15842:	9d5e4243          	0x9d5e4243
   15846:	91de                	add	x3,x3,x23
   15848:	0000                	unimp
   1584a:	4141422f          	0x4141422f
   1584e:	4c50                	lw	x12,28(x8)
   15850:	0020                	addi	x8,x2,8
   15852:	0210                	addi	x12,x2,256
   15854:	0400402f          	0x400402f
   15858:	7804                	flw	f9,48(x8)
   1585a:	1068                	addi	x10,x2,44
   1585c:	7acc                	flw	f11,52(x13)
   1585e:	c35c                	sw	x15,4(x14)
   15860:	454e                	lw	x10,208(x2)
   15862:	9d5e4243          	0x9d5e4243
   15866:	99de                	add	x19,x19,x23
   15868:	0000                	unimp
   1586a:	041e                	slli	x8,x8,0x7
   1586c:	20595053          	0x20595053
   15870:	0020                	addi	x8,x2,8
   15872:	010d                	addi	x2,x2,3
   15874:	111e                	slli	x2,x2,0x27
   15876:	0a00                	addi	x8,x2,272
   15878:	7904                	flw	f9,48(x10)
   1587a:	0ef6                	slli	x29,x29,0x1d
   1587c:	2ee0                	fld	f8,216(x13)
   1587e:	3b99                	jal	155d4 <raw_data+0x4194>
   15880:	454e                	lw	x10,208(x2)
   15882:	9d5e5343          	0x9d5e5343
   15886:	9fde                	add	x31,x31,x23
   15888:	0000                	unimp
   1588a:	0a15                	addi	x20,x20,5
   1588c:	464e                	lw	x12,208(x2)
   1588e:	584c                	lw	x11,52(x8)
   15890:	0020                	addi	x8,x2,8
   15892:	0915020b          	0x915020b
   15896:	0200                	addi	x8,x2,256
   15898:	7c04                	flw	f9,56(x8)
   1589a:	40c8                	lw	x10,4(x9)
   1589c:	0044                	addi	x9,x2,4
   1589e:	ca61                	beqz	x12,1596e <__global_pointer$+0x216>
   158a0:	454e                	lw	x10,208(x2)
   158a2:	9d5e5343          	0x9d5e5343
   158a6:	a5de                	fsd	f23,200(x2)
   158a8:	0000                	unimp
   158aa:	5457ad23          	sw	x5,1370(x15)
   158ae:	2049                	jal	15930 <__global_pointer$+0x1d8>
   158b0:	0020                	addi	x8,x2,8
   158b2:	020e                	slli	x4,x4,0x3
   158b4:	0700bf23          	0x700bf23
   158b8:	7d04                	flw	f9,56(x10)
   158ba:	3b2c                	fld	f11,112(x14)
   158bc:	6ef6                	flw	f29,92(x2)
   158be:	8faa                	mv	x31,x10
   158c0:	454e                	lw	x10,208(x2)
   158c2:	9d5e4243          	0x9d5e4243
   158c6:	afde                	fsd	f23,472(x2)
   158c8:	0000                	unimp
   158ca:	2601                	jal	15bca <__global_pointer$+0x472>
   158cc:	4d59                	li	x26,22
   158ce:	2020                	fld	f8,64(x8)
   158d0:	0020                	addi	x8,x2,8
   158d2:	011f 2e01 0500      	0x5002e01011f
   158d8:	7f04                	flw	f9,56(x14)
   158da:	bd3a                	fsd	f14,184(x2)
   158dc:	16a6                	slli	x13,x13,0x29
   158de:	1f82                	slli	x31,x31,0x20
   158e0:	454e                	lw	x10,208(x2)
   158e2:	9d5e5343          	0x9d5e5343
   158e6:	b4de                	fsd	f23,104(x2)
   158e8:	0000                	unimp
   158ea:	f01e                	fsw	f7,32(x2)
   158ec:	20595053          	0x20595053
   158f0:	0020                	addi	x8,x2,8
   158f2:	0115                	addi	x2,x2,5
   158f4:	f61e                	fsw	f7,44(x2)
   158f6:	0700                	addi	x8,x2,896
   158f8:	8104                	0x8104
   158fa:	8399                	srli	x15,x15,0x6
   158fc:	3196                	fld	f3,352(x2)
   158fe:	8ead                	xor	x13,x13,x11
   15900:	454e                	lw	x10,208(x2)
   15902:	9d5e4243          	0x9d5e4243
   15906:	bdde                	fsd	f23,248(x2)
   15908:	0000                	unimp
   1590a:	693a                	flw	f18,140(x2)
   1590c:	4141                	li	x2,16
   1590e:	4c50                	lw	x12,28(x8)
   15910:	0020                	addi	x8,x2,8
   15912:	020d                	addi	x4,x4,3
   15914:	5d3a                	lw	x26,172(x2)
   15916:	0a00                	addi	x8,x2,272
   15918:	8304                	0x8304
   1591a:	a32cd5c7          	fmsub.d	f11,f25,f18,f20,unknown
   1591e:	3b45                	jal	156ce <raw_data+0x428e>
   15920:	454e                	lw	x10,208(x2)
   15922:	5350                	lw	x12,36(x14)
   15924:	9d5e                	add	x26,x26,x23
   15926:	c0de                	sw	x23,64(x2)
   15928:	0000                	unimp
   1592a:	1e22                	slli	x28,x28,0x28
   1592c:	464e                	lw	x12,208(x2)
   1592e:	584c                	lw	x11,52(x8)
   15930:	0020                	addi	x8,x2,8
   15932:	0112                	slli	x2,x2,0x4
   15934:	3122                	fld	f2,40(x2)
   15936:	0200                	addi	x8,x2,256
   15938:	8604                	0x8604
   1593a:	3dd6                	fld	f27,368(x2)
   1593c:	f5ff                	0xf5ff
   1593e:	3da6                	fld	f27,104(x2)
   15940:	454e                	lw	x10,208(x2)
   15942:	4250                	lw	x12,4(x12)
   15944:	9d5e                	add	x26,x26,x23
   15946:	c3de                	sw	x23,196(x2)
   15948:	0000                	unimp
   1594a:	41416513          	ori	x10,x2,1044
   1594e:	4c50                	lw	x12,28(x8)
   15950:	0020                	addi	x8,x2,8
   15952:	0205                	addi	x4,x4,1
   15954:	08005313          	0x8005313
   15958:	8804                	0x8804
   1595a:	96dc                	0x96dc
   1595c:	5f4ce0e3          	bltu	x25,x20,1673c <__BSS_END__+0x7e4>
   15960:	454e                	lw	x10,208(x2)
   15962:	9d5e5343          	0x9d5e5343
   15966:	ccde                	sw	x23,88(x2)
   15968:	0000                	unimp
   1596a:	9638                	0x9638
   1596c:	20495457          	0x20495457
   15970:	0020                	addi	x8,x2,8
   15972:	a938020f          	0xa938020f
   15976:	0600                	addi	x8,x2,768
   15978:	8b04                	0x8b04
   1597a:	72ba                	flw	f5,172(x2)
   1597c:	fa84                	fsw	f9,48(x13)
   1597e:	5599                	li	x11,-26
   15980:	454e                	lw	x10,208(x2)
   15982:	9d5e5343          	0x9d5e5343
   15986:	d0de                	sw	x23,96(x2)
   15988:	0000                	unimp
   1598a:	5824                	lw	x9,112(x8)
   1598c:	20585053          	0x20585053
   15990:	0020                	addi	x8,x2,8
   15992:	010c                	addi	x11,x2,128
   15994:	6b24                	flw	f9,80(x14)
   15996:	0400                	addi	x8,x2,512
   15998:	8c04                	0x8c04
   1599a:	82e6                	mv	x5,x25
   1599c:	964e5b3f 4243454e 	0x4243454e964e5b3f
   159a4:	9d5e                	add	x26,x26,x23
   159a6:	d5de                	sw	x23,232(x2)
   159a8:	0000                	unimp
   159aa:	e936                	fsw	f13,144(x2)
   159ac:	4141                	li	x2,16
   159ae:	4c50                	lw	x12,28(x8)
   159b0:	0020                	addi	x8,x2,8
   159b2:	0204                	addi	x9,x2,256
   159b4:	fb36                	fsw	f13,180(x2)
   159b6:	0700                	addi	x8,x2,896
   159b8:	8e04                	0x8e04
   159ba:	a0f46e77          	0xa0f46e77
   159be:	3ef1                	jal	1559a <raw_data+0x415a>
   159c0:	454e                	lw	x10,208(x2)
   159c2:	9d5e5343          	0x9d5e5343
   159c6:	d8de                	sw	x23,112(x2)
   159c8:	0000                	unimp
   159ca:	50539d37          	lui	x26,0x50539
   159ce:	2058                	fld	f14,128(x8)
   159d0:	0020                	addi	x8,x2,8
   159d2:	93370117          	auipc	x2,0x93370
   159d6:	0200                	addi	x8,x2,256
   159d8:	9104                	0x9104
   159da:	3dbc                	fld	f15,120(x11)
   159dc:	368e                	fld	f13,224(x2)
   159de:	b6c2                	fsd	f16,360(x2)
   159e0:	53507a4b          	fnmsub.d	f20,f0,f21,f10
   159e4:	9d5e                	add	x26,x26,x23
   159e6:	dede                	sw	x23,124(x2)
   159e8:	0000                	unimp
   159ea:	a51c                	fsd	f15,8(x10)
   159ec:	464e                	lw	x12,208(x2)
   159ee:	584c                	lw	x11,52(x8)
   159f0:	0020                	addi	x8,x2,8
   159f2:	0121                	addi	x2,x2,8
   159f4:	ae1c                	fsd	f15,24(x12)
   159f6:	0b00                	addi	x8,x2,400
   159f8:	9304                	0x9304
   159fa:	725e                	flw	f4,244(x2)
   159fc:	47a9                	li	x15,10
   159fe:	454ee50b          	0x454ee50b
   15a02:	4250                	lw	x12,4(x12)
   15a04:	9d5e                	add	x26,x26,x23
   15a06:	e7de                	fsw	f23,204(x2)
   15a08:	0000                	unimp
   15a0a:	53452d1b          	0x53452d1b
   15a0e:	2020                	fld	f8,64(x8)
   15a10:	0020                	addi	x8,x2,8
   15a12:	2f1b020f          	0x2f1b020f
   15a16:	0c00                	addi	x8,x2,528
   15a18:	9604                	0x9604
   15a1a:	4c5c                	lw	x15,28(x8)
   15a1c:	c1e7bb63          	0xc1e7bb63
   15a20:	454e                	lw	x10,208(x2)
   15a22:	9d5e4243          	0x9d5e4243
   15a26:	edde                	fsw	f23,216(x2)
   15a28:	0000                	unimp
   15a2a:	d830                	sw	x12,112(x8)
   15a2c:	4d59                	li	x26,22
   15a2e:	2020                	fld	f8,64(x8)
   15a30:	0020                	addi	x8,x2,8
   15a32:	d730011b          	0xd730011b
   15a36:	0600                	addi	x8,x2,768
   15a38:	9804                	0x9804
   15a3a:	8a81                	andi	x13,x13,0
   15a3c:	8335                	srli	x14,x14,0xd
   15a3e:	454ec6b3          	0x454ec6b3
   15a42:	5350                	lw	x12,36(x14)
   15a44:	9d5e                	add	x26,x26,x23
   15a46:	f6de                	fsw	f23,108(x2)
   15a48:	0000                	unimp
   15a4a:	c228                	sw	x10,64(x12)
   15a4c:	464e                	lw	x12,208(x2)
   15a4e:	584c                	lw	x11,52(x8)
   15a50:	0020                	addi	x8,x2,8
   15a52:	011f d128 0200      	0x200d128011f
   15a58:	9a04                	0x9a04
   15a5a:	f76528fb          	0xf76528fb
   15a5e:	bf09                	j	15970 <__global_pointer$+0x218>
   15a60:	454e                	lw	x10,208(x2)
   15a62:	9d5e5343          	0x9d5e5343
   15a66:	f9de                	fsw	f23,240(x2)
   15a68:	0000                	unimp
   15a6a:	f231                	bnez	x12,159ae <__global_pointer$+0x256>
   15a6c:	20495457          	0x20495457
   15a70:	0020                	addi	x8,x2,8
   15a72:	0118                	addi	x14,x2,128
   15a74:	ea31                	bnez	x12,15ac8 <__global_pointer$+0x370>
   15a76:	0b00                	addi	x8,x2,400
   15a78:	9b04                	0x9b04
   15a7a:	2c69                	jal	15d14 <__global_pointer$+0x5bc>
   15a7c:	7e4c                	flw	f11,60(x12)
   15a7e:	454e0bdb          	0x454e0bdb
   15a82:	9d5e5343          	0x9d5e5343
   15a86:	01df 0000 7d2b      	0x7d2b000001df
   15a8c:	4141                	li	x2,16
   15a8e:	4c50                	lw	x12,28(x8)
   15a90:	0020                	addi	x8,x2,8
   15a92:	0119                	addi	x2,x2,6
   15a94:	0b00742b          	0xb00742b
   15a98:	9d04                	0x9d04
   15a9a:	c410                	sw	x12,8(x8)
   15a9c:	5f96                	lw	x31,100(x2)
   15a9e:	c200                	sw	x8,0(x12)
   15aa0:	454e                	lw	x10,208(x2)
   15aa2:	4250                	lw	x12,4(x12)
   15aa4:	9d5e                	add	x26,x26,x23
   15aa6:	0adf 0000 f838      	0xf83800000adf
   15aac:	20495457          	0x20495457
   15ab0:	0020                	addi	x8,x2,8
   15ab2:	0220                	addi	x8,x2,264
   15ab4:	0439                	addi	x8,x8,14
   15ab6:	0900                	addi	x8,x2,144
   15ab8:	9e04                	0x9e04
   15aba:	5f5d                	li	x30,-9
   15abc:	e1f8de2f          	0xe1f8de2f
   15ac0:	454e                	lw	x10,208(x2)
   15ac2:	9d5e4243          	0x9d5e4243
   15ac6:	0ddf 0000 6407      	0x640700000ddf
   15acc:	464e                	lw	x12,208(x2)
   15ace:	584c                	lw	x11,52(x8)
   15ad0:	0020                	addi	x8,x2,8
   15ad2:	021d                	addi	x4,x4,7
   15ad4:	07007507          	0x7007507
   15ad8:	a104                	fsd	f9,0(x10)
   15ada:	d61a5d87          	0xd61a5d87
   15ade:	db72                	sw	x28,180(x2)
   15ae0:	454e                	lw	x10,208(x2)
   15ae2:	4250                	lw	x12,4(x12)
   15ae4:	9d5e                	add	x26,x26,x23
   15ae6:	1fdf 0000 6037      	0x603700001fdf
   15aec:	20585053          	0x20585053
   15af0:	0020                	addi	x8,x2,8
   15af2:	74370107          	0x74370107
   15af6:	0500                	addi	x8,x2,640
   15af8:	a404                	fsd	f9,8(x8)
   15afa:	660d                	lui	x12,0x3
   15afc:	0794                	addi	x13,x2,960
   15afe:	86a9                	srai	x13,x13,0xa
   15b00:	454e                	lw	x10,208(x2)
   15b02:	4250                	lw	x12,4(x12)
   15b04:	9d5e                	add	x26,x26,x23
   15b06:	24df 0000 9915      	0x9915000024df
   15b0c:	2046                	fld	f0,80(x2)
   15b0e:	2020                	fld	f8,64(x8)
   15b10:	0020                	addi	x8,x2,8
   15b12:	a4150117          	auipc	x2,0xa4150
   15b16:	0300                	addi	x8,x2,384
   15b18:	a604                	fsd	f9,8(x12)
   15b1a:	10f6                	slli	x1,x1,0x3d
   15b1c:	448a                	lw	x9,128(x2)
   15b1e:	454e4d13          	xori	x26,x28,1108
   15b22:	4250                	lw	x12,4(x12)
   15b24:	9d5e                	add	x26,x26,x23
   15b26:	2bdf 0000 b42c      	0xb42c00002bdf
   15b2c:	4d59                	li	x26,22
   15b2e:	2020                	fld	f8,64(x8)
   15b30:	0020                	addi	x8,x2,8
   15b32:	010e                	slli	x2,x2,0x3
   15b34:	b02c                	fsd	f11,96(x8)
   15b36:	0400                	addi	x8,x2,512
   15b38:	a904                	fsd	f9,16(x10)
   15b3a:	934a                	add	x6,x6,x18
   15b3c:	8df5                	and	x11,x11,x13
   15b3e:	7ffa                	flw	f31,188(x2)
   15b40:	454e                	lw	x10,208(x2)
   15b42:	4250                	lw	x12,4(x12)
   15b44:	9d5e                	add	x26,x26,x23
   15b46:	34df 0000 9622      	0x9622000034df
   15b4c:	2046                	fld	f0,80(x2)
   15b4e:	2020                	fld	f8,64(x8)
   15b50:	0020                	addi	x8,x2,8
   15b52:	0116                	slli	x2,x2,0x5
   15b54:	9322                	add	x6,x6,x8
   15b56:	0500                	addi	x8,x2,640
   15b58:	aa04                	fsd	f9,16(x12)
   15b5a:	a388                	fsd	f10,0(x15)
   15b5c:	c31e                	sw	x7,132(x2)
   15b5e:	8626                	mv	x12,x9
   15b60:	454e                	lw	x10,208(x2)
   15b62:	9d5e4243          	0x9d5e4243
   15b66:	3ddf 0000 ee11      	0xee1100003ddf
   15b6c:	5345                	li	x6,-15
   15b6e:	2020                	fld	f8,64(x8)
   15b70:	0020                	addi	x8,x2,8
   15b72:	0215                	addi	x4,x4,5
   15b74:	f611                	bnez	x12,15a80 <__global_pointer$+0x328>
   15b76:	0a00                	addi	x8,x2,272
   15b78:	ad04                	fsd	f9,24(x10)
   15b7a:	1966                	slli	x18,x18,0x39
   15b7c:	4720                	lw	x8,72(x14)
   15b7e:	2c1a                	fld	f24,384(x2)
   15b80:	454e                	lw	x10,208(x2)
   15b82:	9d5e5343          	0x9d5e5343
   15b86:	40df 0000 f521      	0xf521000040df
   15b8c:	20595053          	0x20595053
   15b90:	0020                	addi	x8,x2,8
   15b92:	010e                	slli	x2,x2,0x3
   15b94:	e521                	bnez	x10,15bdc <__global_pointer$+0x484>
   15b96:	0800                	addi	x8,x2,16
   15b98:	ad04                	fsd	f9,24(x10)
   15b9a:	66099eef          	jal	x29,af1fa <__BSS_END__+0x992a2>
   15b9e:	996d                	andi	x10,x10,-5
   15ba0:	454e                	lw	x10,208(x2)
   15ba2:	5350                	lw	x12,36(x14)
   15ba4:	9d5e                	add	x26,x26,x23
   15ba6:	43df 0000 3501      	0x3501000043df
   15bac:	2046                	fld	f0,80(x2)
   15bae:	2020                	fld	f8,64(x8)
   15bb0:	0020                	addi	x8,x2,8
   15bb2:	0209                	addi	x4,x4,2
   15bb4:	2c01                	jal	15dc4 <__global_pointer$+0x66c>
   15bb6:	0b00                	addi	x8,x2,400
   15bb8:	af04                	fsd	f9,24(x14)
   15bba:	98c5                	andi	x9,x9,-15
   15bbc:	3e8c                	fld	f11,56(x13)
   15bbe:	5419                	li	x8,-26
   15bc0:	454e                	lw	x10,208(x2)
   15bc2:	4250                	lw	x12,4(x12)
   15bc4:	9d5e                	add	x26,x26,x23
   15bc6:	4cdf 0000 9715      	0x971500004cdf
   15bcc:	5345                	li	x6,-15
   15bce:	2020                	fld	f8,64(x8)
   15bd0:	0020                	addi	x8,x2,8
   15bd2:	0109                	addi	x2,x2,2
   15bd4:	8815                	andi	x8,x8,5
   15bd6:	0400                	addi	x8,x2,512
   15bd8:	b204                	fsd	f9,32(x12)
   15bda:	5104                	lw	x9,32(x10)
   15bdc:	ebaa                	fsw	f10,212(x2)
   15bde:	454e94cb          	0x454e94cb
   15be2:	4250                	lw	x12,4(x12)
   15be4:	9d5e                	add	x26,x26,x23
   15be6:	51df 0000 5029      	0x5029000051df
   15bec:	464e                	lw	x12,208(x2)
   15bee:	584c                	lw	x11,52(x8)
   15bf0:	0020                	addi	x8,x2,8
   15bf2:	020a                	slli	x4,x4,0x2
   15bf4:	4329                	li	x6,10
   15bf6:	0700                	addi	x8,x2,896
   15bf8:	b504                	fsd	f9,40(x10)
   15bfa:	6904                	flw	f9,16(x10)
   15bfc:	e14d                	bnez	x10,15c9e <__global_pointer$+0x546>
   15bfe:	ae40                	fsd	f8,152(x12)
   15c00:	454e                	lw	x10,208(x2)
   15c02:	5350                	lw	x12,36(x14)
   15c04:	9d5e                	add	x26,x26,x23
   15c06:	5bdf 0000 e111      	0xe11100005bdf
   15c0c:	2046                	fld	f0,80(x2)
   15c0e:	2020                	fld	f8,64(x8)
   15c10:	0020                	addi	x8,x2,8
   15c12:	d4110217          	auipc	x4,0xd4110
   15c16:	0200                	addi	x8,x2,256
   15c18:	b804                	fsd	f9,48(x8)
   15c1a:	d1f8                	sw	x14,100(x11)
   15c1c:	9088                	0x9088
   15c1e:	454e814b          	0x454e814b
   15c22:	9d5e5343          	0x9d5e5343
   15c26:	63df 0000 1c05      	0x1c05000063df
   15c2c:	4141                	li	x2,16
   15c2e:	4c50                	lw	x12,28(x8)
   15c30:	0020                	addi	x8,x2,8
   15c32:	2f05021b          	0x2f05021b
   15c36:	0a00                	addi	x8,x2,272
   15c38:	b904                	fsd	f9,48(x10)
   15c3a:	3f94                	fld	f13,56(x15)
   15c3c:	be1a                	fsd	f6,312(x2)
   15c3e:	454ef2e7          	0x454ef2e7
   15c42:	9d5e5343          	0x9d5e5343
   15c46:	69df 0000 bc18      	0xbc18000069df
   15c4c:	5345                	li	x6,-15
   15c4e:	2020                	fld	f8,64(x8)
   15c50:	0020                	addi	x8,x2,8
   15c52:	c5180203          	lb	x4,-943(x16) # 6018d85 <__BSS_END__+0x6002e2d>
   15c56:	0200                	addi	x8,x2,256
   15c58:	bb04                	fsd	f9,48(x14)
   15c5a:	b816                	fsd	f5,48(x2)
   15c5c:	172a                	slli	x14,x14,0x2a
   15c5e:	f001                	bnez	x8,15b5e <__global_pointer$+0x406>
   15c60:	454e                	lw	x10,208(x2)
   15c62:	4250                	lw	x12,4(x12)
   15c64:	9d5e                	add	x26,x26,x23
   15c66:	6cdf 0000 a92f      	0xa92f00006cdf
   15c6c:	20495457          	0x20495457
   15c70:	0020                	addi	x8,x2,8
   15c72:	0104                	addi	x9,x2,128
   15c74:	05009c2f          	0x5009c2f
   15c78:	be04                	fsd	f9,56(x12)
   15c7a:	a944                	fsd	f9,144(x10)
   15c7c:	1859                	addi	x16,x16,-10
   15c7e:	8474                	0x8474
   15c80:	454e                	lw	x10,208(x2)
   15c82:	4250                	lw	x12,4(x12)
   15c84:	9d5e                	add	x26,x26,x23
   15c86:	6fdf 0000 6531      	0x653100006fdf
   15c8c:	474f4f47          	fmsub.q	f30,f30,f20,f8,rmm
   15c90:	004c                	addi	x11,x2,4
   15c92:	5a310107          	0x5a310107
   15c96:	0800                	addi	x8,x2,16
   15c98:	be04                	fsd	f9,56(x12)
   15c9a:	9fc8                	0x9fc8
   15c9c:	1149                	addi	x2,x2,-14
   15c9e:	634fd00f          	0x634fd00f
   15ca2:	5350                	lw	x12,36(x14)
   15ca4:	9d5e                	add	x26,x26,x23
   15ca6:	75df 0000 782c      	0x782c000075df
   15cac:	20585053          	0x20585053
   15cb0:	0020                	addi	x8,x2,8
   15cb2:	0108                	addi	x10,x2,128
   15cb4:	6e2c                	flw	f11,88(x12)
   15cb6:	0300                	addi	x8,x2,384
   15cb8:	c104                	sw	x9,0(x10)
   15cba:	0376                	slli	x6,x6,0x1d
   15cbc:	8c95                	sub	x9,x9,x13
   15cbe:	7860                	flw	f8,116(x8)
   15cc0:	454e                	lw	x10,208(x2)
   15cc2:	4250                	lw	x12,4(x12)
   15cc4:	9d5e                	add	x26,x26,x23
   15cc6:	78df 0000 0623      	0x623000078df
   15ccc:	20585053          	0x20585053
   15cd0:	0020                	addi	x8,x2,8
   15cd2:	021a                	slli	x4,x4,0x6
   15cd4:	f422                	fsw	f8,40(x2)
   15cd6:	0900                	addi	x8,x2,144
   15cd8:	c204                	sw	x9,0(x12)
   15cda:	61e4d2a3          	0x61e4d2a3
   15cde:	1f74                	addi	x13,x2,956
   15ce0:	454e                	lw	x10,208(x2)
   15ce2:	9d5e5343          	0x9d5e5343
   15ce6:	82df 0000 f625      	0xf625000082df
   15cec:	5345                	li	x6,-15
   15cee:	2020                	fld	f8,64(x8)
   15cf0:	0020                	addi	x8,x2,8
   15cf2:	0208                	addi	x10,x2,256
   15cf4:	e825                	bnez	x8,15d64 <__global_pointer$+0x60c>
   15cf6:	0a00                	addi	x8,x2,272
   15cf8:	c504                	sw	x9,8(x10)
   15cfa:	230a                	fld	f6,128(x2)
   15cfc:	f9fc                	fsw	f15,116(x11)
   15cfe:	f664                	fsw	f9,108(x12)
   15d00:	454e                	lw	x10,208(x2)
   15d02:	5350                	lw	x12,36(x14)
   15d04:	9d5e                	add	x26,x26,x23
   15d06:	85df 0000 472f      	0x472f000085df
   15d0c:	2046                	fld	f0,80(x2)
   15d0e:	2020                	fld	f8,64(x8)
   15d10:	0020                	addi	x8,x2,8
   15d12:	4c2f0213          	addi	x4,x30,1218 # 1a4c2 <__BSS_END__+0x456a>
   15d16:	0300                	addi	x8,x2,384
   15d18:	c604                	sw	x9,8(x12)
   15d1a:	0362bd4f          	fnmadd.d	f26,f5,f22,f0,rup
   15d1e:	50a5                	li	x1,-23
   15d20:	454e                	lw	x10,208(x2)
   15d22:	9d5e4243          	0x9d5e4243
   15d26:	8fdf 0000 9621      	0x962100008fdf
   15d2c:	4d59                	li	x26,22
   15d2e:	2020                	fld	f8,64(x8)
   15d30:	0020                	addi	x8,x2,8
   15d32:	0106                	slli	x2,x2,0x1
   15d34:	8d21                	xor	x10,x10,x8
   15d36:	0800                	addi	x8,x2,16
   15d38:	c804                	sw	x9,16(x8)
   15d3a:	7e34                	flw	f13,120(x12)
   15d3c:	0e1c3c6f          	jal	x24,d961c <__BSS_END__+0xc36c4>
   15d40:	454e                	lw	x10,208(x2)
   15d42:	9d5e4243          	0x9d5e4243
   15d46:	97df 0000 4409      	0x4409000097df
   15d4c:	464e                	lw	x12,208(x2)
   15d4e:	584c                	lw	x11,52(x8)
   15d50:	0020                	addi	x8,x2,8
   15d52:	0112                	slli	x2,x2,0x4
   15d54:	5209                	li	x4,-30
   15d56:	0700                	addi	x8,x2,896
   15d58:	ca04                	sw	x9,16(x12)
   15d5a:	30d58f5b          	0x30d58f5b
   15d5e:	454e3c03          	0x454e3c03
   15d62:	5350                	lw	x12,36(x14)
   15d64:	9d5e                	add	x26,x26,x23
   15d66:	9edf 0000 4a06      	0x4a0600009edf
   15d6c:	4141                	li	x2,16
   15d6e:	4c50                	lw	x12,28(x8)
   15d70:	0020                	addi	x8,x2,8
   15d72:	0222                	slli	x4,x4,0x8
   15d74:	4e06                	lw	x28,64(x2)
   15d76:	0500                	addi	x8,x2,640
   15d78:	cb04                	sw	x9,16(x14)
   15d7a:	b2b9                	j	156c8 <raw_data+0x4288>
   15d7c:	a65a                	fsd	f22,264(x2)
   15d7e:	ff5a                	fsw	f22,188(x2)
   15d80:	454e                	lw	x10,208(x2)
   15d82:	9d5e4243          	0x9d5e4243
   15d86:	a7df 0000 f135      	0xf1350000a7df
   15d8c:	4d59                	li	x26,22
   15d8e:	2020                	fld	f8,64(x8)
   15d90:	0020                	addi	x8,x2,8
   15d92:	0211                	addi	x4,x4,4
   15d94:	e235                	bnez	x12,15df8 <__global_pointer$+0x6a0>
   15d96:	0700                	addi	x8,x2,896
   15d98:	cd04                	sw	x9,24(x10)
   15d9a:	4d39                	li	x26,14
   15d9c:	1f1577cf          	fnmadd.q	f15,f10,f17,f3
   15da0:	454e                	lw	x10,208(x2)
   15da2:	9d5e5343          	0x9d5e5343
   15da6:	b7df 0000 8025      	0x80250000b7df
   15dac:	4d59                	li	x26,22
   15dae:	2020                	fld	f8,64(x8)
   15db0:	0020                	addi	x8,x2,8
   15db2:	85250113          	addi	x2,x10,-1966 # 5053e852 <__BSS_END__+0x505288fa>
   15db6:	0800                	addi	x8,x2,16
   15db8:	d204                	sw	x9,32(x12)
   15dba:	9542                	add	x10,x10,x16
   15dbc:	f72e                	fsw	f11,172(x2)
   15dbe:	7c08                	flw	f10,56(x8)
   15dc0:	454e                	lw	x10,208(x2)
   15dc2:	5350                	lw	x12,36(x14)
   15dc4:	9d5e                	add	x26,x26,x23
   15dc6:	bbdf 0000 a801      	0xa8010000bbdf
   15dcc:	464e                	lw	x12,208(x2)
   15dce:	584c                	lw	x11,52(x8)
   15dd0:	0020                	addi	x8,x2,8
   15dd2:	99010113          	addi	x2,x2,-1648 # a41654a2 <__BSS_END__+0xa414f54a>
   15dd6:	0400                	addi	x8,x2,512
   15dd8:	d304                	sw	x9,32(x14)
   15dda:	35a7b30b          	0x35a7b30b
   15dde:	6c491fbb          	0x6c491fbb
   15de2:	9d5e4243          	0x9d5e4243
   15de6:	c3df 0000 9016      	0x90160000c3df
   15dec:	474f4f47          	fmsub.q	f30,f30,f20,f8,rmm
   15df0:	004c                	addi	x11,x2,4
   15df2:	0209                	addi	x4,x4,2
   15df4:	8516                	mv	x10,x5
   15df6:	0600                	addi	x8,x2,768
   15df8:	d304                	sw	x9,32(x14)
   15dfa:	a529c1af          	0xa529c1af
   15dfe:	f9a4                	fsw	f9,112(x11)
   15e00:	454e                	lw	x10,208(x2)
   15e02:	9d5e4243          	0x9d5e4243
   15e06:	c8df 0000 cc27      	0xcc270000c8df
   15e0c:	20585053          	0x20585053
   15e10:	0020                	addi	x8,x2,8
   15e12:	020e                	slli	x4,x4,0x3
   15e14:	0700c027          	fsq	f16,96(x1) # ffffe060 <__BSS_END__+0xfffe8108>
   15e18:	d504                	sw	x9,40(x10)
   15e1a:	ed6011e7          	0xed6011e7
   15e1e:	a7bc                	fsd	f15,72(x15)
   15e20:	454e                	lw	x10,208(x2)
   15e22:	9d5e5343          	0x9d5e5343
   15e26:	d1df 0000 9d17      	0x9d170000d1df
   15e2c:	2046                	fld	f0,80(x2)
   15e2e:	2020                	fld	f8,64(x8)
   15e30:	0020                	addi	x8,x2,8
   15e32:	8d170213          	addi	x4,x14,-1839 # 454df8d1 <__BSS_END__+0x454c9979>
   15e36:	0900                	addi	x8,x2,144
   15e38:	d904                	sw	x9,48(x10)
   15e3a:	fe45                	bnez	x12,15df2 <__global_pointer$+0x69a>
   15e3c:	09f0                	addi	x12,x2,220
   15e3e:	da1f 454e 5343      	0x5343454eda1f
   15e44:	9d5e                	add	x26,x26,x23
   15e46:	d7df 0000 a726      	0xa7260000d7df
   15e4c:	5345                	li	x6,-15
   15e4e:	2020                	fld	f8,64(x8)
   15e50:	0020                	addi	x8,x2,8
   15e52:	0208                	addi	x10,x2,256
   15e54:	9b26                	add	x22,x22,x9
   15e56:	0900                	addi	x8,x2,144
   15e58:	da04                	sw	x9,48(x12)
   15e5a:	2989                	jal	162ac <__BSS_END__+0x354>
   15e5c:	f0f5                	bnez	x9,15e40 <__global_pointer$+0x6e8>
   15e5e:	454ed33b          	0x454ed33b
   15e62:	4250                	lw	x12,4(x12)
   15e64:	9d5e                	add	x26,x26,x23
   15e66:	dbdf 0000 bd39      	0xbd390000dbdf
   15e6c:	20585053          	0x20585053
   15e70:	0020                	addi	x8,x2,8
   15e72:	020c                	addi	x11,x2,256
   15e74:	b139                	j	15a82 <__global_pointer$+0x32a>
   15e76:	0b00                	addi	x8,x2,400
   15e78:	dd04                	sw	x9,56(x10)
   15e7a:	acbb05cf          	0xacbb05cf
   15e7e:	7d09                	lui	x26,0xfffe2
   15e80:	454e                	lw	x10,208(x2)
   15e82:	5350                	lw	x12,36(x14)
   15e84:	9d5e                	add	x26,x26,x23
   15e86:	e2df 0000 882f      	0x882f0000e2df
   15e8c:	474f4f47          	fmsub.q	f30,f30,f20,f8,rmm
   15e90:	004c                	addi	x11,x2,4
   15e92:	0211                	addi	x4,x4,4
   15e94:	0600872f          	0x600872f
   15e98:	e004                	fsw	f9,0(x8)
   15e9a:	8419                	srai	x8,x8,0x6
   15e9c:	79ad                	lui	x19,0xfffeb
   15e9e:	75a1                	lui	x11,0xfffe8
   15ea0:	454e                	lw	x10,208(x2)
   15ea2:	5350                	lw	x12,36(x14)
   15ea4:	9d5e                	add	x26,x26,x23
   15ea6:	e5df 0000 1d21      	0x1d210000e5df
   15eac:	20495457          	0x20495457
   15eb0:	0020                	addi	x8,x2,8
   15eb2:	0205                	addi	x4,x4,1
   15eb4:	0e21                	addi	x28,x28,8
   15eb6:	0400                	addi	x8,x2,512
   15eb8:	e204                	fsw	f9,0(x12)
   15eba:	799f e387 0990      	0x990e387799f
   15ec0:	454e                	lw	x10,208(x2)
   15ec2:	5350                	lw	x12,36(x14)
   15ec4:	9d5e                	add	x26,x26,x23
   15ec6:	efdf 0000 ab2e      	0xab2e0000efdf
   15ecc:	5345                	li	x6,-15
   15ece:	2020                	fld	f8,64(x8)
   15ed0:	0020                	addi	x8,x2,8
   15ed2:	011d                	addi	x2,x2,7
   15ed4:	a92e                	fsd	f11,144(x2)
   15ed6:	0900                	addi	x8,x2,144
   15ed8:	e304                	fsw	f9,0(x14)
   15eda:	d5a8e8b7          	lui	x17,0xd5a8e
   15ede:	c615                	beqz	x12,15f0a <__global_pointer$+0x7b2>
   15ee0:	454e                	lw	x10,208(x2)
   15ee2:	4250                	lw	x12,4(x12)
   15ee4:	9d5e                	add	x26,x26,x23
   15ee6:	f5df 0000 a037      	0xa0370000f5df
   15eec:	20495457          	0x20495457
   15ef0:	0020                	addi	x8,x2,8
   15ef2:	0105                	addi	x2,x2,1
   15ef4:	0800ad37          	lui	x26,0x800a
   15ef8:	e604                	fsw	f9,8(x12)
   15efa:	66c4                	flw	f9,12(x13)
   15efc:	4f36                	lw	x30,76(x2)
   15efe:	3f89                	jal	15e50 <__global_pointer$+0x6f8>
   15f00:	454e                	lw	x10,208(x2)
   15f02:	9d5e5343          	0x9d5e5343
   15f06:	fddf 0000 7924      	0x79240000fddf
   15f0c:	4141                	li	x2,16
   15f0e:	4c50                	lw	x12,28(x8)
   15f10:	0020                	addi	x8,x2,8
   15f12:	0112                	slli	x2,x2,0x4
   15f14:	6a24                	flw	f9,80(x12)
   15f16:	0900                	addi	x8,x2,144
   15f18:	e804                	fsw	f9,16(x8)
   15f1a:	e07d                	bnez	x8,16000 <__BSS_END__+0xa8>
   15f1c:	b9f1                	j	15bf8 <__global_pointer$+0x4a0>
   15f1e:	454ee36b          	0x454ee36b
   15f22:	5350                	lw	x12,36(x14)
   15f24:	9d5e                	add	x26,x26,x23
   15f26:	00e0                	addi	x8,x2,76
   15f28:	0000                	unimp
   15f2a:	f008                	fsw	f10,32(x8)
   15f2c:	474f4f47          	fmsub.q	f30,f30,f20,f8,rmm
   15f30:	004c                	addi	x11,x2,4
   15f32:	0221                	addi	x4,x4,8
   15f34:	ec08                	fsw	f10,24(x8)
   15f36:	0c00                	addi	x8,x2,528
   15f38:	ea04                	fsw	f9,16(x12)
   15f3a:	72a0                	flw	f8,96(x13)
   15f3c:	7b74                	flw	f13,116(x14)
   15f3e:	b099                	j	15784 <__global_pointer$+0x2c>

00015f40 <calls_count>:
   15f40:	0000                	unimp
	...

00015f44 <puts_count>:
   15f44:	0000                	unimp
	...

00015f48 <contracts_processed>:
	...

00015f50 <old_message_id>:
	...

Disassembly of section .comment:

00000000 <.comment>:
   0:	3a434347          	fmsub.d	f6,f6,f4,f7,rmm
   4:	2820                	fld	f8,80(x8)
   6:	29554e47          	fmsub.s	f28,f10,f21,f5,rmm
   a:	3720                	fld	f8,104(x14)
   c:	322e                	fld	f4,232(x2)
   e:	302e                	fld	f0,232(x2)
	...

Disassembly of section .riscv.attributes:

00000000 <.riscv.attributes>:
   0:	1e41                	addi	x28,x28,-16
   2:	0000                	unimp
   4:	7200                	flw	f8,32(x12)
   6:	7369                	lui	x6,0xffffa
   8:	01007663          	bgeu	x0,x16,14 <_start-0x1006c>
   c:	0014                	0x14
   e:	0000                	unimp
  10:	7205                	lui	x4,0xfffe1
  12:	3376                	fld	f6,376(x2)
  14:	6932                	flw	f18,12(x2)
  16:	7032                	flw	f0,44(x2)
  18:	5f30                	lw	x12,120(x14)
  1a:	326d                	jal	fffff9c4 <__BSS_END__+0xfffe9a6c>
  1c:	3070                	fld	f12,224(x8)
	...
0000000 0137 8400 0113 fe01 2e23 0011 2c23 0081
0000010 2a23 0091 2823 0121 2623 01a1 0d37 feff
0000020 0d13 efed 1417 0000 0413 39c4 e937 00ba
0000030 0913 bad9 3497 0000 8493 c8c4 0513 0004
0000040 0097 0000 80e7 0640 0463 0005 0d13 0009
0000050 0413 0204 14e3 fe94 3417 0000 0413 c684
0000060 e937 00ba 0913 bad9 5497 0000 8493 a584
0000070 0513 0004 0097 0000 80e7 0300 0463 0005
0000080 0d13 0009 0413 0604 14e3 fe94 07b7 feff
0000090 8793 efe7 1663 00fd 6d37 600d 0d13 00dd
00000a0 006f 0000 4703 0005 0793 04e0 0a63 00f7
00000b0 4683 0015 0713 0450 0793 0000 9863 22e6
00000c0 0113 fe01 2e23 0011 2c23 0081 2a23 0091
00000d0 2823 0121 2623 0131 2423 0141 0413 0005
00000e0 4783 0085 4503 0095 1513 0085 6533 00f5
00000f0 4783 00a4 9793 0107 e7b3 00a7 4503 00b4
0000100 1513 0185 6533 00f5 0097 0000 80e7 1ec0
0000110 0493 0005 4703 0114 4783 0124 9793 0087
0000120 e7b3 00e7 9913 0087 d793 0087 67b3 00f9
0000130 9913 0107 5913 0109 4503 0144 4783 0154
0000140 9793 0087 e7b3 00a7 9a13 0087 d793 0087
0000150 67b3 00fa 9a13 0107 5a13 010a 4703 0164
0000160 4783 0174 9793 0087 e7b3 00e7 9993 0087
0000170 d793 0087 e7b3 00f9 9993 0107 d993 0109
0000180 4783 0184 4503 0194 1513 0085 6533 00f5
0000190 4783 01a4 9793 0107 e7b3 00a7 4503 01b4
00001a0 1513 0185 4703 01c4 4583 01d4 9593 0085
00001b0 e5b3 00e5 4703 01e4 1713 0107 6733 00b7
00001c0 4583 01f4 9593 0185 6533 00f5 e5b3 00e5
00001d0 0097 0000 80e7 1580 0613 0005 8713 0005
00001e0 6797 0000 8793 cf07 a683 0047 e863 00b6
00001f0 9a63 0cb6 a783 0007 f663 0ca7 6797 0000
0000200 8793 cd47 a023 00a7 a223 00b7 6717 0000
0000210 0713 cbc7 2783 0007 87b3 0127 2023 00f7
0000220 4783 0024 0713 0500 9863 02e7 4703 0034
0000230 0793 0420 06b3 4120 1463 00f7 0693 0009
0000240 6717 0000 0713 c847 2783 0007 87b3 00d7
0000250 2023 00f7 006f 0340 0713 0430 9663 02e7
0000260 4703 0034 0793 0530 0693 0009 1463 00f7
0000270 06b3 4120 6717 0000 0713 c4c7 2783 0007
0000280 87b3 00d7 2023 00f7 8533 4144 5713 41f5
0000290 47b3 00a7 87b3 40e7 9793 0027 0713 00a0
00002a0 7463 0137 9793 0017 4683 0134 0713 0010
00002b0 9463 00e6 8793 ffe7 a793 0657 c793 0017
00002c0 006f 0080 0793 0000 8513 0007 2083 01c1
00002d0 2403 0181 2483 0141 2903 0101 2983 00c1
00002e0 2a03 0081 0113 0201 8067 0000 8513 0007
00002f0 8067 0000 5793 0185 1713 0185 e7b3 00e7
0000300 5713 0085 06b7 0001 8693 f006 7733 00d7
0000310 e7b3 00e7 1513 0085 0737 00ff 7533 00e5
0000320 e533 00a7 8067 0000 d693 0185 1793 0185
0000330 d713 0085 08b7 0001 8893 f008 7733 0117
0000340 e6b3 00e6 9613 0085 5713 0185 6733 00e6
0000350 0637 00ff 7733 00e6 e6b3 00e6 9593 0185
0000360 5713 0085 e733 00e5 0337 ff00 7333 00e3
0000370 1e13 0085 5713 0185 e733 00e7 5793 0085
0000380 8813 0005 e833 00b7 77b3 0118 67b3 00f7
0000390 75b3 01c6 e533 0066 e5b3 00b7 8067 0000
00003a0 0000 0000 0000 0000 0000 0000 0000 0000
*
00013c0 454e 4250 9d5e 22cf 0000 f70d 5457 2049
00013d0 0020 021c eb0d 0c00 0500 19eb c1b5 a26e
00013e0 454e 5350 9d5e 25cf 0000 cb05 4141 4c50
00013f0 0020 020f da05 0300 0600 2a55 d754 ba17
0001400 454e 4250 9d5e 2bcf 0000 6e0a 5053 2058
0001410 0020 011e 610a 0200 0700 7398 af51 52b7
0001420 454e 4243 9d5e 30cf 0000 c629 4141 4c50
0001430 0020 020f cb29 0700 0900 b25d 053e f439
0001440 454e 5350 9d5e 39cf 0000 7b23 5053 2058
0001450 0020 0123 8323 0b00 0a00 5184 dc7a 5bfe
0001460 454e 4243 9d5e 3ecf 0000 2f03 5053 2059
0001470 0020 0222 2e03 0600 0a00 c4ed 0a6a 1718
0001480 454e 5350 9d5e 42cf 0000 4614 5053 2059
0001490 0020 011b 4714 0900 0d00 7538 6ba9 9e39
00014a0 454e 4243 9d5e 4bcf 0000 482a 5053 2059
00014b0 0020 0105 452a 0700 1200 e881 210a 27e7
00014c0 454e 4250 9d5e 4ecf 0000 7a00 464e 584c
00014d0 0020 0107 8700 0a00 1300 8cc0 75d6 f608
00014e0 454e 5343 9d5e 58cf 0000 f62d 4f47 474f
00014f0 004c 0104 fb2d 0400 1500 48a8 140e 86f8
0001500 454e 4250 9d5e 61cf 0000 4c30 4f47 474f
0001510 004c 0122 5730 0c00 1700 be5d 40a9 93bb
0001520 454e 4250 9d5e 6dcf 0000 7934 4141 4c50
0001530 0020 0114 6634 0900 1a00 47f8 8cb9 01be
0001540 454e 4243 9d5e 7bcf 0000 641e 4141 4c50
0001550 0020 0119 6d1e 0400 2100 e743 b89a c7ab
0001560 454e 4250 9d5e 84cf 0000 1f0d 4141 4c50
0001570 0020 021b 2c0d 0900 2100 39d7 3882 32e9
0001580 454e 5343 9d5e 8ecf 0000 7c06 464e 584c
0001590 0020 0109 8006 0800 2200 c4db ef4b 386c
00015a0 454e 5343 9d5e 97cf 0000 0e18 5053 2058
00015b0 0020 020e 0218 0d00 2300 3079 4747 7cab
00015c0 454e 4243 9d5e abcf 0000 c924 4d59 2020
00015d0 0020 0113 c924 0500 2800 5e23 417a ef98
00015e0 454e 5350 9d5e afcf 0000 ce00 464e 584c
00015f0 0020 0118 cb00 0d00 2900 4dab 96cc 3319
0001600 454e 4243 9d5e b6cf 0000 4a1d 5345 2020
0001610 0020 0220 421d 0500 2d00 fe6c 246a 7ab5
0001620 454e 4250 9d5e b9cf 0000 830d 4141 4c50
0001630 0020 0123 920d 0800 3000 b6e2 ccef 4c15
0001640 454e 4250 9d5e c1cf 0000 8c0c 5345 2020
0001650 0020 0123 8a0c 0d00 3400 bf12 ed69 2f11
0001660 454e 5350 9d5e c9cf 0000 4c19 4d59 2020
0001670 0020 0107 5c19 0500 3400 b7c3 1c93 8411
0001680 454e 4243 9d5e cfcf 0000 f539 5345 2020
0001690 0020 021d f439 0500 3700 955e f926 2694
00016a0 454e 5343 9d5e d2cf 0000 0103 5345 2020
00016b0 0020 0114 0b03 0500 3a00 a795 db89 074a
00016c0 454e 5343 9d5e dccf 0000 0020 464e 584c
00016d0 0020 0221 fe1f 0800 3c00 623e 9b8c 44fd
00016e0 454e 4243 9d5e e6cf 0000 371d 4141 4c50
00016f0 0020 0214 391d 0600 3d00 391b 8302 943d
0001700 454e 5350 9d5e ebcf 0000 322f 4141 4c50
0001710 0020 0123 2d2f 0800 3e00 3724 d81a 7b7a
0001720 454e 4250 9d5e f2cf 0000 6b05 5053 2059
0001730 0020 011e 6d05 0400 4100 c446 93ca 30fe
0001740 454e 5350 9d5e fbcf 0000 0413 5053 2058
0001750 0020 020d 0d13 0700 4200 aeb6 45bc eca9
0001760 454e 5343 9d5e 0cd0 0000 192e 464e 584c
0001770 0020 0107 1e2e 0300 4900 3b0e 48ed c498
0001780 454e 4250 9d5e 15d0 0000 8b2e 4d59 2020
0001790 0020 020b 9d2e 0800 4b00 2279 7489 a584
00017a0 454e 4250 9d5e 1cd0 0000 8c27 5345 2020
00017b0 0020 0112 7827 0500 4e00 3646 45cf f5b7
00017c0 454e 4250 9d5e 26d0 0000 1d19 5345 2020
00017d0 0020 0113 2219 0300 5000 4e5a 9a2c 590c
00017e0 454e 4243 9d5e 2ad0 0000 2205 2046 2020
00017f0 0020 0107 2d05 0500 5100 e798 7204 3bc2
0001800 454e 5350 9d5e 34d0 0000 1427 5457 2049
0001810 0020 0114 0427 0300 5400 22f9 5d41 a22f
0001820 454e 5350 9d5e 44d0 0000 050b 464e 584c
0001830 0020 0109 170b 0600 5600 58df 9c8a 1a35
0001840 454e 4250 9d5e 4dd0 0000 e901 5053 2058
0001850 0020 0107 e301 0500 5a00 652d a727 098b
0001860 454e 4250 9d5e 54d0 0000 462f 5053 2059
0001870 0020 0109 512f 0500 5a00 de98 c4e0 303d
0001880 454e 5343 9d5e 5bd0 0000 e709 4f47 474f
0001890 004c 0212 f709 0300 5c00 2788 053a 0690
00018a0 454e 5343 9d5e 63d0 0000 fd25 4141 4c50
00018b0 0020 0215 0726 0d00 6000 9860 0b73 f20c
00018c0 454e 5350 9d5e 68d0 0000 e835 5457 2049
00018d0 0020 011f d735 0800 6000 9fde 66f8 59d3
00018e0 454e 5350 9d5e 6dd0 0000 a429 5457 2049
00018f0 0020 0221 9529 0700 6300 4405 4567 4f1d
0001900 454e 5343 9d5e 76d0 0000 e211 4141 4c50
0001910 0020 021d eb11 0400 6500 de2f 0a0b 79b7
0001920 454e 4243 9d5e 7bd0 0000 1334 2046 2020
0001930 0020 010b 0f34 0b00 6700 8ead b08e 787e
0001940 454e 5350 9d5e 85d0 0000 f435 4141 4c50
0001950 0020 0210 f835 0c00 6a00 fb1d 93d4 26cb
0001960 454e 4250 9d5e 8dd0 0000 e00e 5053 2058
0001970 0020 0204 d30e 0a00 6b00 80e8 358c 03a9
0001980 454e 4250 9d5e 9ed0 0000 a235 4f47 474f
0001990 004c 010e b235 0400 7100 306d fdad 6025
00019a0 454e 5343 9d5e a4d0 0000 bc25 5053 2058
00019b0 0020 0109 b425 0d00 7200 9d0d 2e55 407b
00019c0 454e 4250 9d5e abd0 0000 b626 4141 4c50
00019d0 0020 0213 bd26 0800 7200 986d cb57 6a9d
00019e0 454e 5350 9d5e b4d0 0000 6c23 5053 2059
00019f0 0020 010f 7023 0600 7500 29f0 664f 6eff
0001a00 454e 4243 9d5e bad0 0000 7b39 5053 2059
0001a10 0020 0204 7c39 0d00 7900 611b b590 b99b
0001a20 454e 5350 9d5e c2d0 0000 cc02 4141 4c50
0001a30 0020 0105 d802 0b00 7c00 3261 d04b 3a67
0001a40 454e 4243 9d5e c6d0 0000 8f07 5457 2049
0001a50 0020 021a 8407 0a00 7c00 5ac4 bde9 8dbb
0001a60 454e 5350 9d5e c9d0 0000 1e15 4d59 2020
0001a70 0020 0220 2615 0d00 7d00 23fc 0e29 b128
0001a80 454e 5343 9d5e d0d0 0000 7332 5457 2049
0001a90 0020 021a 6a32 0800 7e00 df5f 4f7d 05eb
0001aa0 454e 4250 9d5e d7d0 0000 8823 5345 2020
0001ab0 0020 0214 9823 0200 8000 5ae0 15fe eb40
0001ac0 454e 4243 9d5e e0d0 0000 9c04 5345 2020
0001ad0 0020 010c 9404 0400 8200 ff4e 58e7 6c9c
0001ae0 454e 4250 9d5e e7d0 0000 f602 5053 2058
0001af0 0020 0106 e702 0500 8500 4124 cbba 4edb
0001b00 454e 5350 9d5e efd0 0000 1f2d 5053 2059
0001b10 0020 010c 2b2d 0900 8700 f32a 7b14 66bd
0001b20 454e 5350 9d5e f7d0 0000 4316 5053 2059
0001b30 0020 021e 3316 0a00 8700 1895 a940 9f20
0001b40 454e 4250 9d5e fbd0 0000 5c0d 5457 2049
0001b50 0020 0212 600d 0700 8800 29bb 0fa8 4c55
0001b60 454e 5343 9d5e 05d1 0000 7810 5457 2049
0001b70 0020 011a 7810 0200 8a00 7ece 60b0 a6d6
0001b80 454e 5343 9d5e 0bd1 0000 b30f 4f47 474f
0001b90 004c 0116 c00f 0800 8b00 10f3 ec37 7135
0001ba0 454e 5343 9d5e 12d1 0000 ff24 5457 2049
0001bb0 0020 0113 f724 0500 8e00 7a3e 2162 abfc
0001bc0 454e 5343 9d5e 1cd1 0000 852d 4d59 2020
0001bd0 0020 020f 882d 0700 8f00 7344 f715 0e71
0001be0 454e 5343 9d5e 25d1 0000 f836 4f47 474f
0001bf0 004c 021f ff36 0300 9000 4a6f 7853 3103
0001c00 454e 5350 9d5e 2dd1 0000 0611 5053 2058
0001c10 0020 0215 f410 0800 9200 c7e4 0b72 f42a
0001c20 454e 5350 9d5e 3ad1 0000 6a37 4f47 474f
0001c30 004c 0205 6e37 0b00 9300 96f7 d20e db22
0001c40 454e 4243 9d5e 45d1 0000 0b2e 5053 2058
0001c50 0020 0218 0e2e 0200 9900 729a 6070 35e8
0001c60 454e 4250 9d5e 49d1 0000 7624 5457 2049
0001c70 0020 010f 8224 0900 9c00 46a7 a52c b986
0001c80 454e 5350 9d5e 53d1 0000 4f21 4f47 474f
0001c90 004c 011b 5621 0500 9e00 20f7 7ba4 abc8
0001ca0 454e 4250 9d5e 5cd1 0000 7d09 4f47 474f
0001cb0 004c 021e 8a09 0a00 a100 007f 3985 3527
0001cc0 454e 5350 9d5e 63d1 0000 b133 5345 2020
0001cd0 0020 0218 ba33 0500 a400 ea96 dc44 c721
0001ce0 454e 4243 9d5e 6dd1 0000 cb0f 2046 2020
0001cf0 0020 0216 bc0f 0300 a500 100e 0166 118d
0001d00 454e 4250 9d5e 74d1 0000 8504 4141 4c50
0001d10 0020 0107 9004 0600 a500 3475 7618 2f91
0001d20 454e 5350 9d5e 7bd1 0000 8b12 5345 2020
0001d30 0020 0123 9512 0700 a600 f630 9e39 8408
0001d40 454e 4250 9d5e 83d1 0000 4506 2046 2020
0001d50 0020 021b 4006 0700 a800 4502 19bb a9fd
0001d60 454e 4243 9d5e 86d1 0000 182a 5053 2059
0001d70 0020 0203 192a 0700 aa00 9b68 1832 e038
0001d80 454e 4250 9d5e 90d1 0000 6619 4141 4c50
0001d90 0020 0207 5a19 0b00 ac00 4be9 7372 2f16
0001da0 454e 5350 9d5e 99d1 0000 ec28 464e 584c
0001db0 0020 0223 ed28 0500 ad00 aeb2 da86 a1c8
0001dc0 454e 4243 9d5e 9ed1 0000 be14 4d59 2020
0001dd0 0020 0205 cb14 0200 ae00 40ba 344c 106f
0001de0 454e 5350 9d5e a2d1 0000 8634 2046 2020
0001df0 0020 021e 8834 0400 af00 f135 7da4 4e73
0001e00 454e 5343 9d5e a7d1 0000 333a 4f47 474f
0001e10 004c 021c 2a3a 0400 b100 85da be3e 85f2
0001e20 454e 4250 9d5e afd1 0000 0116 4f47 474f
0001e30 004c 010c fd15 0600 b400 5de0 a2a4 4d9d
0001e40 454e 4243 9d5e b8d1 0000 8807 4f47 474f
0001e50 004c 0216 9907 0200 b500 d4b2 6e88 93ff
0001e60 454e 5343 9d5e c1d1 0000 8b29 5345 2020
0001e70 0020 010a 7729 0900 b900 9a07 b051 c2ec
0001e80 454e 4250 9d5e c9d1 0000 de25 2046 2020
0001e90 0020 0103 de25 0b00 b900 1ed3 291b e84b
0001ea0 454e 5343 9d5e ccd1 0000 f318 464e 584c
0001eb0 0020 020e e518 0800 bb00 87bd 7f4d 9a6f
0001ec0 454e 5343 9d5e d3d1 0000 2c01 5053 2058
0001ed0 0020 011a 1b01 0200 bd00 a4be 0131 94f9
0001ee0 454e 5350 9d5e dad1 0000 a932 5053 2059
0001ef0 0020 0215 ba32 0600 c000 8eee cd98 3a3e
0001f00 454e 4243 9d5e e3d1 0000 452f 5053 2059
0001f10 0020 0122 452f 0600 c300 1509 8db4 d3ca
0001f20 454e 4250 9d5e e6d1 0000 c823 5053 2059
0001f30 0020 021b c923 0200 c400 136d db35 3cf5
0001f40 454e 5350 9d5e ebd1 0000 1f2c 5345 2020
0001f50 0020 0113 132c 0d00 c500 3a13 e7d2 2196
0001f60 454e 5343 9d5e f0d1 0000 8b27 4d59 2020
0001f70 0020 0207 9427 0b00 c500 ede5 15a5 1366
0001f80 454e 5350 9d5e f7d1 0000 6b2e 464e 584c
0001f90 0020 0210 672e 0700 c800 d1ed 07fa fb67
0001fa0 454e 4243 9d5e ffd1 0000 3525 5053 2059
0001fb0 0020 0108 2a25 0c00 ca00 51a7 8fc9 76b4
0001fc0 454e 4250 9d5e 09d2 0000 4c25 4141 4c50
0001fd0 0020 0103 4e25 0b00 cc00 bdfb d140 04bb
0001fe0 454e 4243 9d5e 0dd2 0000 6018 5457 2049
0001ff0 0020 0114 5118 0700 cd00 ed78 648f 1ae5
0002000 454e 5343 9d5e 16d2 0000 2328 5053 2059
0002010 0020 021c 2428 0200 ce00 c79d c83e b65c
0002020 454e 5343 9d5e 19d2 0000 ab0e 4141 4c50
0002030 0020 010f 9b0e 0600 d100 8059 5160 252f
0002040 454e 4243 9d5e 1fd2 0000 f622 5053 2059
0002050 0020 010a e922 0700 d400 7d30 d6e3 d0a1
0002060 454e 4250 9d5e 28d2 0000 db05 5053 2059
0002070 0020 010b d305 0a00 d600 2feb 3611 9b81
0002080 454e 4250 9d5e 31d2 0000 4427 4141 4c50
0002090 0020 0220 4627 0c00 d900 b77b 4e68 9cc8
00020a0 454e 5343 9d5e 35d2 0000 8c04 4f47 474f
00020b0 004c 0105 9c04 0200 dc00 615a 7f87 a18b
00020c0 454e 5350 9d5e 3bd2 0000 b629 4f47 474f
00020d0 004c 0213 b429 0400 df00 7310 5dd6 2325
00020e0 454e 4250 9d5e 44d2 0000 d32a 5053 2059
00020f0 0020 011e d52a 0d00 e100 96a2 a3fb 3ebb
0002100 454e 4250 9d5e 4cd2 0000 a036 4f47 474f
0002110 004c 0220 9936 0a00 e500 aa1d 9008 e43d
0002120 454e 5343 9d5e 51d2 0000 a706 464e 584c
0002130 0020 0208 ae06 0d00 e800 a545 cb63 4062
0002140 454e 5343 9d5e 54d2 0000 1629 4141 4c50
0002150 0020 0215 2929 0700 eb00 9ac5 09d9 cae2
0002160 454e 4250 9d5e 57d2 0000 ea26 5053 2058
0002170 0020 011b d626 0700 ed00 a301 f561 71db
0002180 454e 4250 9d5e 60d2 0000 9e1c 5457 2049
0002190 0020 0114 aa1c 0c00 ed00 cedd 1299 c793
00021a0 454e 4243 9d5e 66d2 0000 3d23 4d59 2020
00021b0 0020 020a 4823 0800 ef00 4f7f d2a6 1fb9
00021c0 454e 4243 9d5e 6ad2 0000 c537 464e 584c
00021d0 0020 0121 ce37 0b00 ef00 01e2 1b40 5435
00021e0 454e 5343 9d5e 71d2 0000 d625 464e 584c
00021f0 0020 010d e125 0200 f200 b0f9 795a f1f2
0002200 454e 4250 9d5e 75d2 0000 1428 4d59 2020
0002210 0020 0209 2328 0700 f500 c47e aa8f df03
0002220 454e 5343 9d5e 78d2 0000 853a 4d59 2020
0002230 0020 010c 713a 0800 f700 8a96 e06a 054b
0002240 454e 5350 9d5e 7fd2 0000 9110 4d59 2020
0002250 0020 021e a210 0700 f800 9fb9 d5b1 6b45
0002260 454e 4250 9d5e 83d2 0000 a534 4f47 474f
0002270 004c 020c 9134 0800 fb00 cd3b 5b59 3dc0
0002280 454e 5343 9d5e 91d2 0000 bd21 5457 2049
0002290 0020 011a bb21 0700 ff00 f186 d977 2477
00022a0 454e 5343 9d5e 9ad2 0000 953a 2046 2020
00022b0 0020 0207 923a 0c00 0301 629e 62c4 c435
00022c0 454e 4243 9d5e a1d2 0000 b22b 5053 2059
00022d0 0020 0218 9e2b 0300 0601 e75a 8a34 b5e3
00022e0 454e 4243 9d5e aed2 0000 2620 5457 2049
00022f0 0020 0107 3520 0a00 0801 782a 7d35 8107
0002300 454e 4243 9d5e b8d2 0000 221e 4d59 2020
0002310 0020 0203 201e 0200 0b01 b689 dbe0 0f20
0002320 7551 4243 9d5e bcd2 0000 3e3a 4141 4c50
0002330 0020 0119 463a 0500 0c01 467b 89d8 3e43
0002340 454e 5350 9d5e c1d2 0000 fa32 5345 2020
0002350 0020 0120 f932 0b00 0c01 a6f7 6aa1 9049
0002360 454e 5343 9d5e c4d2 0000 3009 4141 4c50
0002370 0020 0205 2e09 0500 0e01 e24e badb 3c28
0002380 7658 5350 9d5e ced2 0000 8733 2046 2020
0002390 0020 020e 7833 0a00 0e01 dcef 4f42 7c2e
00023a0 454e 5350 9d5e d4d2 0000 7b1c 464e 584c
00023b0 0020 0103 671c 0400 0f01 45ae d8d2 bcad
00023c0 454e 4243 9d5e dad2 0000 2730 4141 4c50
00023d0 0020 011f 3630 0400 1201 2422 8015 cf4b
00023e0 454e 5350 9d5e ddd2 0000 081a 4141 4c50
00023f0 0020 011e 181a 0600 1301 fb56 3354 b164
0002400 454e 4250 9d5e ead2 0000 a238 5053 2058
0002410 0020 020d a438 0c00 1701 b175 a1bd 973b
0002420 454e 4243 9d5e f4d2 0000 c21d 2046 2020
0002430 0020 0117 c51d 0300 1801 761f 118c 7eba
0002440 454e 4243 9d5e fbd2 0000 3323 4d59 2020
0002450 0020 020c 3323 0300 1801 ee8e f954 5fb3
0002460 454e 4243 9d5e fed2 0000 942c 464e 584c
0002470 0020 0204 952c 0c00 1b01 ca11 5e66 e3b5
0002480 454e 4250 9d5e 04d3 0000 ae02 5053 2059
0002490 0020 0218 a202 0500 1e01 4252 14bc 2f34
00024a0 7542 5343 9d5e 0ed3 0000 a00c 5345 2020
00024b0 0020 021c a30c 0700 2201 bb76 79f4 c00e
00024c0 454e 4243 9d5e 16d3 0000 6901 4d59 2020
00024d0 0020 0203 6d01 0500 2201 fbd6 8903 220f
00024e0 454e 4250 9d5e 20d3 0000 390d 2046 2020
00024f0 0020 0103 3f0d 0300 2501 8988 0978 2911
0002500 454e 5343 9d5e 2ad3 0000 6c00 4d59 2020
0002510 0020 0117 6700 0d00 2801 e7b9 5612 6eb9
0002520 454e 5343 9d5e 2fd3 0000 e100 4141 4c50
0002530 0020 0104 d200 0600 2901 ffcd 8861 0467
0002540 454e 4250 9d5e 35d3 0000 3b27 2046 2020
0002550 0020 0122 4727 0400 2c01 a016 8ad9 7e3a
0002560 454e 5343 9d5e 3fd3 0000 6c33 5053 2058
0002570 0020 0207 5c33 0700 2f01 3050 fb87 6e47
0002580 454e 4250 9d5e 45d3 0000 1905 5457 2049
0002590 0020 020e 2d05 0600 3001 b3b1 e8b1 c5e7
00025a0 454e 4243 9d5e 51d3 0000 8e2b 2046 2020
00025b0 0020 0220 9a2b 0400 3601 b14e abcc df67
00025c0 454e 4243 9d5e 54d3 0000 3826 4f47 474f
00025d0 004c 0220 4226 0900 3901 f776 8f95 0b81
00025e0 454e 5343 9d5e 59d3 0000 c410 5053 2059
00025f0 0020 021e bf10 0d00 3b01 c3ac 3fdb 19cd
0002600 454e 5350 9d5e 5fd3 0000 9e0e 5053 2058
0002610 0020 0103 a80e 0800 3d01 3979 5a12 fd41
0002620 454e 4243 9d5e 64d3 0000 0c17 4141 4c50
0002630 0020 021c 1517 0500 3f01 32a8 689e 6dc5
0002640 454e 4243 9d5e 67d3 0000 6b2a 5345 2020
0002650 0020 0119 782a 0900 4201 27b2 98dd 47b0
0002660 454e 5350 9d5e 70d3 0000 ba2b 5053 2059
0002670 0020 0219 bb2b 0a00 4501 10af b29a d587
0002680 454e 5343 9d5e 74d3 0000 1225 5053 2059
0002690 0020 011c 0425 0500 4701 16bb 9f4e 7456
00026a0 454e 5343 9d5e 78d3 0000 d519 4d59 2020
00026b0 0020 0113 d119 0400 4801 2f59 75aa f2f4
00026c0 454e 5350 9d5e 7fd3 0000 a617 2046 2020
00026d0 0020 0114 a417 0200 4801 13fd 4fd2 226f
00026e0 454e 5343 9d5e 85d3 0000 6c1b 5053 2058
00026f0 0020 0206 671b 0700 4a01 e191 3b1e f6c9
0002700 454e 5350 9d5e 8dd3 0000 9933 5053 2059
0002710 0020 0123 aa33 0400 4c01 cea5 3cb6 1bac
0002720 454e 4250 9d5e 90d3 0000 7b2b 5457 2049
0002730 0020 020f 8b2b 0a00 4e01 eb36 ef03 4f69
0002740 7953 5350 9d5e 95d3 0000 1f1b 5457 2049
0002750 0020 0208 201b 0b00 4f01 61dc b705 82ad
0002760 454e 4250 9d5e 9fd3 0000 1a39 4f47 474f
0002770 004c 0103 1b39 0200 5101 d3cf 282e 0406
0002780 454e 5343 9d5e b3d3 0000 e02b 5457 2049
0002790 0020 010b d42b 0700 5701 7a3d db7a 59f8
00027a0 454e 5350 9d5e bcd3 0000 d733 4d59 2020
00027b0 0020 0213 c833 0500 5a01 552c a6f0 60c9
00027c0 454e 5350 9d5e c1d3 0000 6b23 4141 4c50
00027d0 0020 0120 7e23 0200 5b01 40fd 98fe 31c6
00027e0 454e 5343 9d5e c5d3 0000 3218 2046 2020
00027f0 0020 0217 3918 0700 5d01 fdc7 8309 481a
0002800 454e 4250 9d5e cfd3 0000 4a11 5053 2058
0002810 0020 0213 4211 0a00 5e01 8e90 db5e b1cb
0002820 454e 5343 9d5e d9d3 0000 2202 4141 4c50
0002830 0020 0103 2102 0800 5f01 f4a1 2b2e 50d0
0002840 7757 5343 9d5e ded3 0000 7c33 5457 2049
0002850 0020 0222 7c33 0700 6001 fc53 2d7f 0ddd
0002860 454e 5350 9d5e e8d3 0000 8936 464e 584c
0002870 0020 020f 9036 0300 6201 1d4f eee3 e508
0002880 454e 4250 9d5e ecd3 0000 9311 4141 4c50
0002890 0020 021e a611 0a00 6401 f90c 5daa eeb7
00028a0 454e 4250 9d5e f3d3 0000 231b 4f47 474f
00028b0 004c 0210 171b 0600 6601 34f6 1067 88f3
00028c0 454e 4243 9d5e fdd3 0000 4d05 5345 2020
00028d0 0020 0205 4d05 0b00 6b01 590e 2b6f 9547
00028e0 454e 5350 9d5e 01d4 0000 8b2b 2046 2020
00028f0 0020 0218 822b 0600 6d01 c807 d6fd 6fda
0002900 454e 4250 9d5e 05d4 0000 0321 4f47 474f
0002910 004c 0213 fa20 0600 6d01 41bb ea63 ed78
0002920 454e 4243 9d5e 0fd4 0000 ff39 4d59 2020
0002930 0020 0109 fb39 0300 7001 b4c6 9776 c591
0002940 454e 5343 9d5e 19d4 0000 522c 4141 4c50
0002950 0020 0223 3e2c 0300 7201 1ef4 7821 71b8
0002960 454e 5350 9d5e 28d4 0000 4714 5053 2058
0002970 0020 020f 3d14 0b00 7501 198e c0c4 a6df
0002980 454e 5343 9d5e 2fd4 0000 e530 5345 2020
0002990 0020 0204 de30 0d00 7701 3811 a8ea 38b4
00029a0 454e 4250 9d5e 39d4 0000 8231 5053 2059
00029b0 0020 0107 7d31 0300 7901 895d 430c d09f
00029c0 454e 5343 9d5e 43d4 0000 3c0c 5053 2059
00029d0 0020 0111 280c 0600 7901 5cc7 e378 33c7
00029e0 7955 5343 9d5e 48d4 0000 8312 5053 2059
00029f0 0020 0216 7212 0200 7a01 25c4 8d7b f7fb
0002a00 454e 4250 9d5e 52d4 0000 9316 5345 2020
0002a10 0020 0104 a016 0a00 7b01 70d7 8ba7 7810
0002a20 454e 4243 9d5e 5cd4 0000 6d37 5053 2059
0002a30 0020 011c 6e37 0800 7d01 32de 51e1 3d8e
0002a40 454e 5343 9d5e 66d4 0000 421d 5457 2049
0002a50 0020 011a 431d 0800 7e01 38f0 f613 4519
0002a60 454e 4250 9d5e 70d4 0000 9e39 5053 2059
0002a70 0020 0205 9b39 0800 8101 8f84 812c 54a3
0002a80 454e 4243 9d5e 74d4 0000 ce24 5345 2020
0002a90 0020 0215 d024 0d00 8201 bfcb 57ba 7489
0002aa0 454e 5343 9d5e 78d4 0000 a015 5053 2058
0002ab0 0020 021f ae15 0400 8401 2041 97c1 4bc8
0002ac0 454e 4243 9d5e 7dd4 0000 821e 4141 4c50
0002ad0 0020 0104 861e 0c00 8701 0a75 1b93 f781
0002ae0 454e 5350 9d5e 80d4 0000 0b18 5345 2020
0002af0 0020 0209 0418 0800 8a01 f6f8 2518 8e71
0002b00 454e 4243 9d5e 87d4 0000 8714 5457 2049
0002b10 0020 0120 7314 0300 8d01 925b 90c3 9fd0
0002b20 454e 4243 9d5e 91d4 0000 aa1c 4141 4c50
0002b30 0020 0122 bb1c 0800 8e01 4752 0a24 ce57
0002b40 454e 5343 9d5e 98d4 0000 622a 4d59 2020
0002b50 0020 0208 652a 0400 9101 9308 1824 feff
0002b60 454e 4243 9d5e a2d4 0000 a80d 5457 2049
0002b70 0020 021e b20d 0200 9101 1ded f63a 266a
0002b80 454e 4250 9d5e abd4 0000 920a 464e 584c
0002b90 0020 011d 990a 0d00 9301 fd40 5628 c37d
0002ba0 454e 4250 9d5e b4d4 0000 2d1e 5457 2049
0002bb0 0020 0213 1d1e 0300 9401 3074 480e b4b2
0002bc0 454e 4243 9d5e bad4 0000 d123 5053 2058
0002bd0 0020 021f cb23 0500 9701 a78e 9b21 f2f9
0002be0 454e 4243 9d5e c3d4 0000 2830 4d59 2020
0002bf0 0020 011c 2a30 0d00 9a01 00b1 ff05 37c6
0002c00 454e 4243 9d5e cad4 0000 8017 4d59 2020
0002c10 0020 0214 9417 0500 9c01 de0f be04 1fb6
0002c20 454e 4243 9d5e d4d4 0000 cc1c 2046 2020
0002c30 0020 0210 d11c 0300 9e01 962f dbae 0cec
0002c40 454e 5343 9d5e dbd4 0000 010c 5053 2059
0002c50 0020 021c 0a0c 0200 9e01 b090 fc67 4138
0002c60 454e 4250 9d5e e4d4 0000 ea0a 2046 2020
0002c70 0020 0213 e60a 0800 a001 2216 7aac 149c
0002c80 454e 4243 9d5e e7d4 0000 f92f 4141 4c50
0002c90 0020 0106 f92f 0200 a001 7ae1 8348 2cd3
0002ca0 454e 4250 9d5e edd4 0000 db02 4d59 2020
0002cb0 0020 010f d302 0400 a101 8a75 3c1e 713a
0002cc0 454e 5350 9d5e f0d4 0000 3b2f 5457 2049
0002cd0 0020 0205 292f 0800 a201 58f5 f516 8d7a
0002ce0 454e 5350 9d5e f5d4 0000 ee08 4f47 474f
0002cf0 004c 0103 f408 0600 a401 1538 c719 873d
0002d00 454e 4250 9d5e f9d4 0000 8e05 4d59 2020
0002d10 0020 0223 8605 0800 a501 e878 8680 558d
0002d20 454e 4243 9d5e 02d5 0000 ec11 464e 584c
0002d30 0020 0206 de11 0900 a501 77e3 d8b2 1bb3
0002d40 454e 4243 9d5e 07d5 0000 2d24 4f47 474f
0002d50 004c 0117 2c24 0400 a801 fa8d 6d2d bb31
0002d60 454e 4250 9d5e 0cd5 0000 e82d 4d59 2020
0002d70 0020 0214 f02d 0d00 ab01 dd7e 7d7e 2312
0002d80 454e 5350 9d5e 10d5 0000 041b 5457 2049
0002d90 0020 021a f11a 0900 ad01 5db6 ea23 fd98
0002da0 454e 4243 9d5e 1cd5 0000 df14 5345 2020
0002db0 0020 0213 ec14 0800 b001 c1c9 79a0 d272
0002dc0 454e 4243 9d5e 1fd5 0000 0923 464e 584c
0002dd0 0020 0109 0523 0a00 b201 4474 92a1 5677
0002de0 454e 5350 9d5e 29d5 0000 7602 5053 2058
0002df0 0020 020a 7202 0700 b201 a8e6 e256 2f82
0002e00 454e 4250 9d5e 33d5 0000 fa0f 464e 584c
0002e10 0020 021c f20f 0700 b501 358b 01c4 ffe2
0002e20 454e 4243 9d5e 38d5 0000 9213 4f47 474f
0002e30 004c 0220 9113 0400 b701 3483 613f 2864
0002e40 454e 4250 9d5e 44d5 0000 b51f 5053 2059
0002e50 0020 0206 bb1f 0a00 bc01 fe74 6094 da7f
0002e60 454e 5350 9d5e 48d5 0000 bf00 4141 4c50
0002e70 0020 0118 c800 0a00 be01 aca4 ccd9 1145
0002e80 454e 4250 9d5e 4bd5 0000 b432 5345 2020
0002e90 0020 0113 b632 0500 c101 a707 4ffc 63f0
0002ea0 454e 4243 9d5e 53d5 0000 9c35 464e 584c
0002eb0 0020 0111 a035 0d00 c101 c372 e9ad dcd8
0002ec0 454e 5343 9d5e 57d5 0000 ab04 464e 584c
0002ed0 0020 0209 b904 0800 c201 e265 9a3f 6bb1
0002ee0 454e 5350 9d5e 61d5 0000 c518 4f47 474f
0002ef0 004c 0113 b218 0300 c401 5448 0406 a3f3
0002f00 454e 5343 9d5e 69d5 0000 5a0f 4f47 474f
0002f10 004c 011b 690f 0800 c501 0da8 6149 a8ce
0002f20 454e 4250 9d5e 6cd5 0000 6829 4d59 2020
0002f30 0020 0206 6d29 0b00 c601 b052 e4dd 1749
0002f40 454e 5343 9d5e 6fd5 0000 a818 464e 584c
0002f50 0020 0206 af18 0b00 c601 d7cf ee57 cd40
0002f60 454e 4243 9d5e 77d5 0000 9f31 5053 2058
0002f70 0020 0119 9831 0a00 c901 e97c 5a28 bee0
0002f80 454e 4243 9d5e 81d5 0000 8434 5053 2059
0002f90 0020 0206 9034 0300 cc01 850b d604 9317
0002fa0 454e 4250 9d5e 8bd5 0000 8923 464e 584c
0002fb0 0020 0115 8323 0a00 cd01 a8c2 3515 709e
0002fc0 454e 5343 9d5e 92d5 0000 e603 5053 2059
0002fd0 0020 0106 f303 0700 cf01 384d 16dc 5079
0002fe0 454e 5350 9d5e 9fd5 0000 a92d 4d59 2020
0002ff0 0020 021d a02d 0a00 d401 0eff 1d9e 2fe3
0003000 454e 5350 9d5e a6d5 0000 c901 5053 2058
0003010 0020 011d cc01 0900 d701 0e2a 2ca4 6fee
0003020 454e 5343 9d5e add5 0000 070b 5053 2058
0003030 0020 0112 1a0b 0200 d901 bfbb 91f3 db1c
0003040 684d 4250 9d5e b6d5 0000 8404 464e 584c
0003050 0020 0219 7d04 0b00 de01 49b9 c1a5 4b4f
0003060 454e 4243 9d5e bbd5 0000 0205 4141 4c50
0003070 0020 0212 0a05 0b00 e001 146f eb93 6a9c
0003080 454e 4243 9d5e c0d5 0000 7428 5053 2058
0003090 0020 010f 8028 0900 e201 94d3 0e1d cce0
00030a0 454e 4250 9d5e c9d5 0000 f12f 5053 2058
00030b0 0020 020f fc2f 0d00 e601 6b4d 7c5a 37b3
00030c0 454e 4243 9d5e d4d5 0000 d51f 5053 2059
00030d0 0020 0118 dd1f 0600 ea01 5cb3 8b18 fa5c
00030e0 454e 5350 9d5e d7d5 0000 fe14 464e 584c
00030f0 0020 0203 ff14 0200 ec01 4792 b56c b233
0003100 454e 5343 9d5e ddd5 0000 de17 4f47 474f
0003110 004c 021b d417 0800 ef01 cd22 62f2 2580
0003120 454e 5350 9d5e e6d5 0000 a724 464e 584c
0003130 0020 0210 a224 0300 ef01 77c3 33b6 ff88
0003140 454e 4250 9d5e e9d5 0000 4131 4f47 474f
0003150 004c 020e 4131 0700 f201 b996 f08c 5aad
0003160 454e 4250 9d5e f1d5 0000 b811 4f47 474f
0003170 004c 0219 bf11 0a00 f501 3930 b4dc ce04
0003180 454e 4250 9d5e fad5 0000 320f 2046 2020
0003190 0020 0109 1f0f 0600 f701 2d8f f74a 5da0
00031a0 454e 4243 9d5e 04d6 0000 ba16 4f47 474f
00031b0 004c 011e bc16 0a00 f901 0b32 3e76 a93c
00031c0 454e 4243 9d5e 0bd6 0000 8a31 2046 2020
00031d0 0020 011f 8a31 0d00 f901 32c9 58e9 8347
00031e0 454e 4250 9d5e 10d6 0000 be25 464e 584c
00031f0 0020 010c c325 0900 fc01 9705 460e 65cf
0003200 454e 5343 9d5e 19d6 0000 d936 5053 2059
0003210 0020 020b d536 0200 fd01 9a4c c2a0 1c98
0003220 454e 5350 9d5e 1dd6 0000 2b12 5053 2059
0003230 0020 0206 3412 0200 ff01 4b8c a35d 7bb5
0003240 454e 4243 9d5e 21d6 0000 b129 4f47 474f
0003250 004c 010f a629 0600 0202 8a5a f076 4e25
0003260 454e 5343 9d5e 2bd6 0000 402a 4f47 474f
0003270 004c 011c 3e2a 0300 0502 ec6a 2acc 6c4f
0003280 454e 5350 9d5e 34d6 0000 420a 4141 4c50
0003290 0020 0110 310a 0800 0602 1ac8 96be 587f
00032a0 454e 4250 9d5e 42d6 0000 c017 464e 584c
00032b0 0020 011a c417 0600 0902 e759 99d0 1de6
00032c0 454e 4243 9d5e 46d6 0000 170b 4f47 474f
00032d0 004c 0119 090b 0900 0902 a0d0 7477 e3a2
00032e0 454e 4250 9d5e 49d6 0000 0429 4141 4c50
00032f0 0020 021a 1629 0900 0c02 c888 7291 9114
0003300 454e 4250 9d5e 51d6 0000 6f23 4141 4c50
0003310 0020 0212 6523 0800 0f02 9c15 c535 0b5b
0003320 454e 4250 9d5e 5bd6 0000 c035 4f47 474f
0003330 004c 0220 bd35 0a00 1002 b9a1 c3da 110c
0003340 454e 4250 9d5e 62d6 0000 7b00 5053 2059
0003350 0020 0223 7d00 0400 1402 6719 735e 411e
0003360 454e 5350 9d5e 66d6 0000 ab02 5457 2049
0003370 0020 0211 a702 0600 1402 8578 6db1 f9cd
0003380 454e 5343 9d5e 6bd6 0000 a833 5053 2058
0003390 0020 0106 ab33 0600 1702 72e5 a192 db6a
00033a0 454e 5350 9d5e 74d6 0000 c213 5053 2058
00033b0 0020 0211 ca13 0d00 1802 8b49 b4cc 21a8
00033c0 454e 4250 9d5e 79d6 0000 6420 4d59 2020
00033d0 0020 0107 5f20 0a00 1a02 2476 1fd6 4040
00033e0 454e 4243 9d5e 7cd6 0000 c30e 4f47 474f
00033f0 004c 0220 d30e 0a00 1b02 0fee d613 a3b4
0003400 454e 5343 9d5e 85d6 0000 411f 4141 4c50
0003410 0020 0207 441f 0500 1d02 b686 407a f91a
0003420 454e 4250 9d5e 8cd6 0000 3c18 4d59 2020
0003430 0020 020b 2d18 0200 1f02 2278 0c18 7c50
0003440 454e 5343 9d5e 94d6 0000 6013 4d59 2020
0003450 0020 0121 6713 0b00 2002 da5c d22e 1160
0003460 454e 4243 9d5e 9ed6 0000 0109 5053 2058
0003470 0020 021b 1109 0500 2102 51a9 f4c0 cab0
0003480 454e 4250 9d5e a7d6 0000 bc0c 2046 2020
0003490 0020 0106 b90c 0b00 2402 93ca 9152 3a8f
00034a0 454e 5350 9d5e acd6 0000 463a 4f47 474f
00034b0 004c 0220 463a 0200 2502 663c aa10 87db
00034c0 454e 4243 9d5e b6d6 0000 501e 4d59 2020
00034d0 0020 0119 581e 0a00 2702 0fbf 0f8c 255e
00034e0 454e 5350 9d5e bbd6 0000 4a0c 4d59 2020
00034f0 0020 021a 470c 0c00 2a02 bad1 c271 2f75
0003500 454e 5343 9d5e c4d6 0000 7c21 2046 2020
0003510 0020 020e 8021 0600 2d02 004b bee1 cd10
0003520 454e 5350 9d5e cad6 0000 5f1f 4d59 2020
0003530 0020 010f 561f 0600 2f02 d4f9 acbc be1e
0003540 454e 4243 9d5e d0d6 0000 161e 5053 2059
0003550 0020 021a 101e 0b00 3102 8c1d 04d3 bf8d
0003560 454e 4250 9d5e e0d6 0000 2728 464e 584c
0003570 0020 0113 2d28 0c00 3202 3d66 8e2b 17a0
0003580 454e 4250 9d5e e6d6 0000 930d 4f47 474f
0003590 004c 021e 970d 0800 3302 4245 5c4e d8e5
00035a0 454e 5343 9d5e efd6 0000 ad12 5457 2049
00035b0 0020 021d a512 0300 3402 7e04 b23e 98c1
00035c0 454e 5343 9d5e f6d6 0000 7a32 5457 2049
00035d0 0020 011b 8c32 0600 3502 2957 da0d 7f9e
00035e0 454e 5343 9d5e 01d7 0000 7b06 464e 584c
00035f0 0020 0123 7f06 0300 3702 75e1 6d01 0b1c
0003600 7944 5343 9d5e 06d7 0000 fc06 5053 2059
0003610 0020 021c 0307 0600 3802 53c2 7c4b b6f0
0003620 454e 5343 9d5e 0fd7 0000 4216 4141 4c50
0003630 0020 0109 3816 0700 3a02 cf95 a07b 09f8
0003640 6648 5350 9d5e 17d7 0000 b229 5345 2020
0003650 0020 0103 a029 0400 3b02 f581 d292 09da
0003660 454e 4250 9d5e 1fd7 0000 ff0e 5345 2020
0003670 0020 0114 fd0e 0200 3c02 9dac a6ea 9e32
0003680 454e 4243 9d5e 22d7 0000 2017 5053 2059
0003690 0020 0215 2317 0700 3f02 984d 89e0 eda2
00036a0 454e 5350 9d5e 2ad7 0000 f616 464e 584c
00036b0 0020 0215 0a17 0300 4102 a916 166f 381b
00036c0 454e 4250 9d5e 2dd7 0000 9c0e 4f47 474f
00036d0 004c 0204 890e 0500 4202 aa3f 7735 a40b
00036e0 454e 5343 9d5e 36d7 0000 d317 4141 4c50
00036f0 0020 0108 d617 0400 4202 c2b5 52f1 ef4f
0003700 454e 5343 9d5e 3dd7 0000 f721 5053 2059
0003710 0020 0207 eb21 0300 4302 75cc ae0d 17b3
0003720 454e 4243 9d5e 47d7 0000 c308 5053 2058
0003730 0020 021c b808 0200 4502 e370 c49d 3c40
0003740 454e 4243 9d5e 4ed7 0000 da37 5457 2049
0003750 0020 0206 d837 0d00 4702 d11e 2d4d 82b6
0003760 454e 4250 9d5e 53d7 0000 b106 5053 2058
0003770 0020 020e b706 0500 4802 504d 83a9 2de7
0003780 454e 5343 9d5e 58d7 0000 bb1f 5345 2020
0003790 0020 0112 a91f 0800 4b02 45a5 77e9 ba5c
00037a0 454e 4243 9d5e 62d7 0000 c633 4141 4c50
00037b0 0020 0114 b633 0200 4e02 2e70 6c28 8358
00037c0 454e 4250 9d5e 66d7 0000 cf0a 4f47 474f
00037d0 004c 0203 d40a 0900 5102 6bf8 6294 f8bc
00037e0 454e 5343 9d5e 6ad7 0000 3920 4141 4c50
00037f0 0020 0220 3e20 0d00 5202 8fa1 c72f 444f
0003800 454e 5350 9d5e 6fd7 0000 d508 5053 2059
0003810 0020 0104 ca08 0b00 5302 0bc3 dafb 2428
0003820 454e 4243 9d5e 76d7 0000 db1f 5053 2059
0003830 0020 0122 d81f 0800 5502 841a c250 d95d
0003840 454e 5343 9d5e 7ad7 0000 f20e 4141 4c50
0003850 0020 0105 050f 0a00 5602 187f 58ce c6c8
0003860 454e 4250 9d5e 7dd7 0000 5611 4141 4c50
0003870 0020 0222 5211 0600 5902 c44d 42a5 3386
0003880 454e 5350 9d5e 84d7 0000 7e36 4d59 2020
0003890 0020 0107 8e36 0600 5c02 5f45 4279 da00
00038a0 454e 4243 9d5e 8ed7 0000 cb14 464e 584c
00038b0 0020 0116 b914 0200 5c02 0aad 4e97 5908
00038c0 454e 5343 9d5e 98d7 0000 231d 5053 2059
00038d0 0020 0217 2d1d 0500 5f02 7385 4df7 ebd9
00038e0 454e 5343 9d5e 9dd7 0000 f02a 2046 2020
00038f0 0020 0114 ee2a 0300 6202 363f fe2f 4027
0003900 454e 5343 9d5e a0d7 0000 9f13 4d59 2020
0003910 0020 021e 9913 0a00 6302 d569 7340 93fe
0003920 454e 4250 9d5e a4d7 0000 2e08 4f47 474f
0003930 004c 021f 3b08 0200 6302 82d5 e773 b0de
0003940 454e 4243 9d5e b5d7 0000 1d11 464e 584c
0003950 0020 0111 1d11 0c00 6902 46b1 7abb c0bc
0003960 454e 4243 9d5e bdd7 0000 cb0b 5345 2020
0003970 0020 021f bf0b 0c00 6d02 6912 4da9 9031
0003980 454e 4243 9d5e c0d7 0000 810e 464e 584c
0003990 0020 0213 7c0e 0700 6e02 45b3 0d71 2722
00039a0 454e 5343 9d5e c9d7 0000 a527 4d59 2020
00039b0 0020 0116 9b27 0c00 7102 ff12 ead2 f903
00039c0 454e 5343 9d5e d1d7 0000 ff2f 5457 2049
00039d0 0020 010b 0e30 0500 7202 5839 31ba 7907
00039e0 454e 5350 9d5e dbd7 0000 e108 5053 2058
00039f0 0020 0210 d908 0d00 7502 e00f 0d02 c37a
0003a00 454e 5343 9d5e e2d7 0000 c407 4d59 2020
0003a10 0020 0114 cf07 0300 7602 3715 edb5 599b
0003a20 454e 4243 9d5e e7d7 0000 8712 5053 2059
0003a30 0020 010a 8212 0900 7802 87c0 51d5 c2ac
0003a40 454e 5350 9d5e f8d7 0000 0b1f 4f47 474f
0003a50 004c 0213 0f1f 0a00 7e02 9b86 9bf1 9281
0003a60 454e 5343 9d5e ffd7 0000 b12d 5457 2049
0003a70 0020 011b a42d 0a00 8002 8dca f10e f9fd
0003a80 454e 5343 9d5e 05d8 0000 722f 2046 2020
0003a90 0020 0114 742f 0c00 8102 61cd a946 0416
0003aa0 454e 5343 9d5e 0ad8 0000 dd09 5457 2049
0003ab0 0020 021b ea09 0500 8202 e0c3 6214 e615
0003ac0 454e 4250 9d5e 0fd8 0000 4514 4f47 474f
0003ad0 004c 010f 3f14 0c00 8402 2449 92a6 8c25
0003ae0 454e 5343 9d5e 15d8 0000 4a09 4141 4c50
0003af0 0020 0220 3e09 0200 8602 31a0 0585 f2a3
0003b00 454e 5350 9d5e 1dd8 0000 2e28 5053 2059
0003b10 0020 010f 3a28 0700 8902 4082 a1bd cda2
0003b20 454e 4250 9d5e 26d8 0000 a100 4d59 2020
0003b30 0020 0220 9100 0300 8c02 4e01 66b5 376b
0003b40 454e 5343 9d5e 2cd8 0000 db06 5457 2049
0003b50 0020 0117 db06 0400 8d02 68a0 0032 3ddc
0003b60 7a44 4250 9d5e 32d8 0000 1410 2046 2020
0003b70 0020 011d 1c10 0a00 8f02 784d 6af1 1d26
0003b80 454e 4250 9d5e 39d8 0000 3726 5457 2049
0003b90 0020 010f 3726 0b00 9002 548d ed6d 1783
0003ba0 454e 5350 9d5e 43d8 0000 5f20 4f47 474f
0003bb0 004c 0211 5f20 0a00 9402 412a 5a2b 2311
0003bc0 6a43 5350 9d5e 56d8 0000 0d05 464e 584c
0003bd0 0020 0208 1105 0b00 9702 da26 8d68 5a16
0003be0 454e 4243 9d5e 5ad8 0000 101b 5053 2058
0003bf0 0020 010a 241b 0900 9a02 6997 a221 0472
0003c00 454e 4250 9d5e 63d8 0000 cc22 5053 2058
0003c10 0020 021e d222 0900 9d02 e7d3 e83f 9734
0003c20 454e 5350 9d5e 73d8 0000 3e2d 5345 2020
0003c30 0020 0110 3c2d 0700 a002 16f7 4e68 7cfb
0003c40 454e 4250 9d5e 7bd8 0000 6b15 2046 2020
0003c50 0020 0204 7515 0c00 a302 14b8 0bfb d62f
0003c60 454e 5343 9d5e 7ed8 0000 7308 464e 584c
0003c70 0020 0112 7908 0a00 a602 29db 97ec 3acb
0003c80 454e 5350 9d5e 85d8 0000 b813 464e 584c
0003c90 0020 0215 b713 0600 a902 00a2 8948 c4c2
0003ca0 454e 5343 9d5e 8ed8 0000 0203 5053 2058
0003cb0 0020 0214 ff02 0400 ab02 787b dded bea5
0003cc0 454e 5343 9d5e 98d8 0000 822f 4141 4c50
0003cd0 0020 011f 8f2f 0a00 ab02 c6df 2f15 51ff
0003ce0 454e 4243 9d5e 9dd8 0000 9225 4d59 2020
0003cf0 0020 0211 8a25 0c00 ad02 2c04 0f97 4955
0003d00 454e 4250 9d5e a7d8 0000 8e28 5053 2058
0003d10 0020 010d 8228 0800 b102 9050 4de8 f6df
0003d20 454e 4243 9d5e afd8 0000 5710 5457 2049
0003d30 0020 0109 5a10 0500 b202 ed01 53e8 30e1
0003d40 454e 4243 9d5e b7d8 0000 630a 4d59 2020
0003d50 0020 011f 5f0a 0a00 b502 a01b 15be aae1
0003d60 454e 5343 9d5e c0d8 0000 1a2a 4141 4c50
0003d70 0020 0117 1f2a 0200 b602 617e a5c9 44b3
0003d80 454e 5350 9d5e c6d8 0000 ca35 5053 2059
0003d90 0020 0221 cb35 0200 b802 5f38 8f56 3ead
0003da0 454e 5343 9d5e cdd8 0000 7816 5053 2058
0003db0 0020 011c 7e16 0400 b902 f96a 989e ca29
0003dc0 454e 4243 9d5e d2d8 0000 802d 4141 4c50
0003dd0 0020 0223 792d 0200 ba02 312f 7029 5ed5
0003de0 454e 5350 9d5e dbd8 0000 1d39 4d59 2020
0003df0 0020 0219 2539 0b00 ba02 53ff e1b3 5f81
0003e00 454e 5350 9d5e ded8 0000 7600 4d59 2020
0003e10 0020 010c 7700 0d00 bb02 86b9 bd99 a8e8
0003e20 454e 5350 9d5e e4d8 0000 832d 2046 2020
0003e30 0020 010f 6f2d 0300 bc02 204e fc93 f86b
0003e40 454e 4250 9d5e e7d8 0000 cf08 4d59 2020
0003e50 0020 020b cb08 0b00 be02 df2e bcc6 ae65
0003e60 454e 5350 9d5e ebd8 0000 2e0f 5053 2058
0003e70 0020 0122 390f 0700 c102 918a caaa fe39
0003e80 454e 5343 9d5e eed8 0000 3502 4141 4c50
0003e90 0020 0108 4002 0300 c202 2aa5 80a0 adb0
0003ea0 454e 5350 9d5e f6d8 0000 8d39 5053 2058
0003eb0 0020 021a 7a39 0800 c502 ac98 0526 9613
0003ec0 454e 5350 9d5e f9d8 0000 6e18 4141 4c50
0003ed0 0020 011c 6e18 0b00 c502 f3ff 3b88 c05b
0003ee0 454e 4250 9d5e fdd8 0000 6912 4141 4c50
0003ef0 0020 0105 6712 0d00 c802 b2dd 0e90 a222
0003f00 454e 5350 9d5e 05d9 0000 c538 5457 2049
0003f10 0020 0208 ca38 0d00 c902 073f 24b5 2b68
0003f20 454e 4250 9d5e 0ad9 0000 2320 464e 584c
0003f30 0020 0110 1320 0900 c902 fcf9 4044 67f1
0003f40 7753 5343 9d5e 13d9 0000 1d31 5053 2058
0003f50 0020 010d 1831 0b00 cc02 822c 2b5e 16a4
0003f60 454e 4250 9d5e 1bd9 0000 fd0d 5053 2058
0003f70 0020 0104 0a0e 0300 ce02 954a 681f 5330
0003f80 454e 5343 9d5e 1ed9 0000 fc0e 5053 2059
0003f90 0020 010e 030f 0800 ce02 42d6 f111 d6af
0003fa0 454e 5343 9d5e 23d9 0000 3b26 2046 2020
0003fb0 0020 021f 2826 0400 d002 6535 69ea 155c
0003fc0 454e 4250 9d5e 2bd9 0000 2825 4d59 2020
0003fd0 0020 0220 3125 0500 d202 d83f 59a4 cd59
0003fe0 454e 5343 9d5e 34d9 0000 d826 2046 2020
0003ff0 0020 0116 d426 0200 d302 7fc4 e1ee fb5a
0004000 454e 4243 9d5e 37d9 0000 b324 4f47 474f
0004010 004c 0111 c024 0600 d502 5910 090a 5274
0004020 454e 4243 9d5e 3dd9 0000 7917 2046 2020
0004030 0020 021c 7017 0500 d702 75ba f17d 4004
0004040 454e 5343 9d5e 43d9 0000 2f22 5053 2059
0004050 0020 0120 2c22 0b00 da02 c138 4105 1a3b
0004060 454e 4243 9d5e 4bd9 0000 5b26 464e 584c
0004070 0020 021d 5526 0b00 db02 9bc2 390d 9966
0004080 454e 4243 9d5e 54d9 0000 9b1b 5345 2020
0004090 0020 010a 951b 0800 dc02 3ef6 06fc 6cbd
00040a0 454e 5343 9d5e 59d9 0000 af14 5345 2020
00040b0 0020 0108 ad14 0700 de02 6dd5 71a1 f9fb
00040c0 454e 5350 9d5e 5fd9 0000 730e 464e 584c
00040d0 0020 0106 680e 0700 e102 fba0 aeb7 7fcb
00040e0 454e 5343 9d5e 65d9 0000 742c 5345 2020
00040f0 0020 021f 632c 0200 e202 a32a 33bb 3159
0004100 454e 4243 9d5e 6fd9 0000 a42d 5457 2049
0004110 0020 0114 922d 0400 e502 7337 6163 d321
0004120 454e 5350 9d5e 72d9 0000 532f 2046 2020
0004130 0020 0205 442f 0400 e602 2518 55ff 0cef
0004140 454e 5343 9d5e 76d9 0000 9221 5053 2058
0004150 0020 021b 9921 0d00 e802 993e a7fd 96d6
0004160 454e 4250 9d5e 7fd9 0000 1326 5053 2059
0004170 0020 0104 0d26 0b00 e902 dc64 8574 b37f
0004180 454e 4243 9d5e 91d9 0000 761e 5053 2059
0004190 0020 0210 6a1e 0b00 ed02 90ca eb7c 2638
00041a0 454e 5350 9d5e 9ad9 0000 5320 5345 2020
00041b0 0020 020a 4a20 0700 f102 6244 7f40 bddb
00041c0 454e 5343 9d5e a2d9 0000 2e29 464e 584c
00041d0 0020 0205 3b29 0700 f202 c652 5df1 c430
00041e0 454e 5343 9d5e a9d9 0000 e20c 2046 2020
00041f0 0020 020c f30c 0500 f202 a6e0 503e 0b6c
0004200 454e 5343 9d5e b5d9 0000 ce01 464e 584c
0004210 0020 0205 cb01 0d00 f802 bbae 56a1 6594
0004220 454e 4250 9d5e bed9 0000 d930 5053 2059
0004230 0020 020a e130 0500 f902 0d8e 996b 7390
0004240 6541 4250 9d5e c2d9 0000 d732 5345 2020
0004250 0020 0111 e232 0600 fb02 39d1 26a9 56c1
0004260 454e 5343 9d5e ccd9 0000 4008 464e 584c
0004270 0020 020c 4308 0800 fd02 6da0 76bc f32f
0004280 454e 5350 9d5e d4d9 0000 080b 5053 2059
0004290 0020 021a f70a 0a00 fe02 71bb 61d1 032c
00042a0 454e 4243 9d5e dad9 0000 0b36 4d59 2020
00042b0 0020 021a 0336 0900 0103 8c9b 047f 6210
00042c0 454e 4243 9d5e e0d9 0000 e512 4d59 2020
00042d0 0020 0121 f112 0700 0403 ba71 8267 63c6
00042e0 454e 5350 9d5e ead9 0000 f12e 4141 4c50
00042f0 0020 021c f22e 0a00 0703 3036 7137 172b
0004300 454e 5350 9d5e f3d9 0000 740e 464e 584c
0004310 0020 0208 740e 0300 0803 4392 51d5 946b
0004320 454e 4243 9d5e f7d9 0000 a811 5053 2059
0004330 0020 0109 b011 0c00 0a03 ea68 7ef1 bc78
0004340 6749 5350 9d5e fcd9 0000 411e 4f47 474f
0004350 004c 0220 2f1e 0300 0d03 477c 0430 60cc
0004360 454e 5350 9d5e 04da 0000 a229 464e 584c
0004370 0020 020f a829 0300 0e03 eca7 a539 04aa
0004380 454e 5350 9d5e 0ada 0000 cd1c 5345 2020
0004390 0020 0221 c61c 0800 1003 fc55 9322 24fa
00043a0 454e 4243 9d5e 0dda 0000 070a 5457 2049
00043b0 0020 0117 ff09 0d00 1203 2cbd 1c0a 8e4c
00043c0 454e 4250 9d5e 16da 0000 6c2d 5457 2049
00043d0 0020 0208 722d 0300 1603 850f 0286 c446
00043e0 454e 5343 9d5e 20da 0000 0914 4d59 2020
00043f0 0020 021b f513 0500 1603 7fc9 057f faff
0004400 454e 5343 9d5e 33da 0000 2e15 2046 2020
0004410 0020 011a 3215 0600 1903 674e f9e5 87e9
0004420 454e 5343 9d5e 38da 0000 2728 5053 2059
0004430 0020 0115 1728 0a00 1c03 802e 0f06 7879
0004440 454e 5343 9d5e 3fda 0000 7d18 4141 4c50
0004450 0020 0105 8418 0300 1c03 009c a609 5ee7
0004460 454e 5350 9d5e 43da 0000 f901 5053 2059
0004470 0020 0210 e801 0600 1f03 4cc5 a531 8635
0004480 454e 4250 9d5e 49da 0000 e52c 4d59 2020
0004490 0020 0115 ef2c 0600 2103 cad4 101d c428
00044a0 454e 4250 9d5e 4dda 0000 6a33 5345 2020
00044b0 0020 0203 6233 0400 2403 7360 be89 386d
00044c0 454e 4243 9d5e 50da 0000 4206 4141 4c50
00044d0 0020 0211 4906 0c00 2703 850c 533b 9533
00044e0 454e 5343 9d5e 62da 0000 980a 5053 2059
00044f0 0020 011d 8b0a 0500 2a03 dd7f e0ea ca8e
0004500 454e 4250 9d5e 69da 0000 232d 4141 4c50
0004510 0020 020c 2e2d 0400 2d03 22ee e827 dec3
0004520 454e 5350 9d5e 73da 0000 6d2e 4d59 2020
0004530 0020 0110 6d2e 0b00 3403 3e7b 1550 902f
0004540 454e 4243 9d5e 7bda 0000 ef14 4f47 474f
0004550 004c 0203 e314 0400 3603 9a6e c81a 3f04
0004560 454e 5343 9d5e 7eda 0000 e001 2046 2020
0004570 0020 0206 e601 0d00 3703 ea13 b0be 9260
0004580 454e 4250 9d5e 83da 0000 a305 5053 2059
0004590 0020 010f 9f05 0200 3903 41c7 131a 2a72
00045a0 454e 4250 9d5e 86da 0000 3714 4d59 2020
00045b0 0020 0118 2e14 0800 3c03 884f 0479 26da
00045c0 454e 5350 9d5e 8fda 0000 0410 4d59 2020
00045d0 0020 0115 ff0f 0500 3f03 50a4 1140 24c5
00045e0 454e 4250 9d5e 97da 0000 1a21 464e 584c
00045f0 0020 0120 1c21 0300 4103 7b4b 3168 f5e2
0004600 454e 5350 9d5e a1da 0000 0209 464e 584c
0004610 0020 0118 0f09 0200 4403 33a1 9ca7 f06c
0004620 454e 4243 9d5e a7da 0000 2810 5053 2058
0004630 0020 021d 3010 0400 4503 ed29 910a 4321
0004640 454e 5343 9d5e b1da 0000 f410 5345 2020
0004650 0020 0205 f810 0b00 4803 4f41 e23d 402d
0004660 454e 4243 9d5e b9da 0000 6e1b 4141 4c50
0004670 0020 0105 791b 0700 4a03 2b3f a2a1 d107
0004680 454e 5343 9d5e cbda 0000 8f18 2046 2020
0004690 0020 0116 9d18 0600 4d03 d44c d6a0 2a74
00046a0 454e 4243 9d5e d8da 0000 8904 5345 2020
00046b0 0020 0207 9704 0700 4f03 82e6 30fb fe8f
00046c0 454e 4250 9d5e e1da 0000 b402 2046 2020
00046d0 0020 0215 c502 0200 5203 c28a 8ad8 22ce
00046e0 454e 5350 9d5e e6da 0000 dd2b 5345 2020
00046f0 0020 011b ca2b 0300 5303 7300 62c9 8a99
0004700 454e 4250 9d5e eada 0000 b72c 5053 2059
0004710 0020 011c c72c 0700 5403 dbd8 adbc f339
0004720 454e 5350 9d5e f1da 0000 c124 5053 2058
0004730 0020 0223 c724 0900 5703 30d8 85e6 97ca
0004740 454e 5350 9d5e f5da 0000 1d10 2046 2020
0004750 0020 0115 2f10 0900 5a03 11fb 8926 e537
0004760 454e 5350 9d5e fbda 0000 0304 4141 4c50
0004770 0020 020b f303 0300 5d03 7f59 39b5 e3a2
0004780 454e 5350 9d5e ffda 0000 881b 5345 2020
0004790 0020 021f 831b 0c00 6003 2abb e88f 6fa5
00047a0 454e 4250 9d5e 04db 0000 6a38 2046 2020
00047b0 0020 010c 7e38 0300 6303 54eb dc6f e060
00047c0 454e 4250 9d5e 09db 0000 7323 464e 584c
00047d0 0020 011d 7623 0200 6403 8696 7cc1 579f
00047e0 454e 4250 9d5e 0ddb 0000 7b01 5053 2058
00047f0 0020 0214 7801 0200 6703 2716 c165 2893
0004800 454e 4243 9d5e 11db 0000 6426 5345 2020
0004810 0020 021e 5b26 0700 6a03 1828 d2d9 9736
0004820 454e 4250 9d5e 18db 0000 8e1d 2046 2020
0004830 0020 0217 831d 0200 6d03 5a31 4ebf a72b
0004840 454e 5343 9d5e 1fdb 0000 3c19 2046 2020
0004850 0020 010b 3e19 0200 6f03 4444 a829 62e1
0004860 454e 4250 9d5e 26db 0000 cc19 5345 2020
0004870 0020 0112 d919 0900 7203 5c16 10f1 2206
0004880 454e 5343 9d5e 30db 0000 2c0e 4141 4c50
0004890 0020 0214 3e0e 0500 7303 9a35 63f9 52f9
00048a0 454e 4243 9d5e 36db 0000 c728 5053 2059
00048b0 0020 011b c828 0200 7503 855f 5848 0766
00048c0 454e 4250 9d5e 3ddb 0000 be01 464e 584c
00048d0 0020 010f bc01 0300 7703 a16d 1944 81bc
00048e0 454e 4243 9d5e 45db 0000 e30f 4f47 474f
00048f0 004c 0117 e60f 0400 7903 81d9 63ca 3507
0004900 454e 5350 9d5e 4ddb 0000 dc12 4f47 474f
0004910 004c 0205 d412 0300 7c03 f046 3b35 7ebb
0004920 454e 4250 9d5e 55db 0000 bb0d 5345 2020
0004930 0020 011b ab0d 0a00 7c03 1abd 92a4 bb6b
0004940 454e 4243 9d5e 5ddb 0000 4c3a 4d59 2020
0004950 0020 011a 503a 0500 7e03 8a9b 226f 1213
0004960 454e 5343 9d5e 63db 0000 d103 5053 2058
0004970 0020 0110 e003 0800 7f03 54e0 cd65 dae7
0004980 454e 5350 9d5e 67db 0000 cb1d 5053 2059
0004990 0020 0106 bb1d 0500 8103 341d 6017 d168
00049a0 454e 4250 9d5e 6fdb 0000 b612 2046 2020
00049b0 0020 0116 a312 0700 8203 7747 3164 61cc
00049c0 454e 4243 9d5e 76db 0000 2802 4d59 2020
00049d0 0020 0103 1c02 0a00 8503 d11a 3e03 b9a1
00049e0 454e 5350 9d5e 83db 0000 3924 5457 2049
00049f0 0020 0111 4c24 0400 8903 6b67 4d0b 239e
0004a00 454e 5350 9d5e 8bdb 0000 e021 2046 2020
0004a10 0020 021e e821 0900 8c03 0c7f dc48 a00c
0004a20 454e 5343 9d5e 8fdb 0000 380f 464e 584c
0004a30 0020 0223 3b0f 0200 8f03 7a26 daec 944a
0004a40 454e 5343 9d5e 98db 0000 2719 464e 584c
0004a50 0020 0114 2619 0200 9103 7718 2295 1e37
0004a60 454e 5343 9d5e acdb 0000 1725 4f47 474f
0004a70 004c 020d 0e25 0b00 9703 7fb9 ca79 c916
0004a80 454e 5343 9d5e b7db 0000 5828 2046 2020
0004a90 0020 0220 6828 0800 9903 402c 2197 c9e8
0004aa0 454e 5343 9d5e badb 0000 682b 5053 2059
0004ab0 0020 0214 772b 0200 9c03 9a37 6f14 ad8b
0004ac0 454e 5343 9d5e c3db 0000 3c2d 2046 2020
0004ad0 0020 0222 3b2d 0300 9c03 1eb4 ab63 e9bc
0004ae0 454e 4243 9d5e c6db 0000 1c0e 4141 4c50
0004af0 0020 0211 1f0e 0a00 9d03 5e78 fef1 657f
0004b00 454e 5350 9d5e d0db 0000 690b 464e 584c
0004b10 0020 0206 7d0b 0600 9f03 d3f9 875b 182e
0004b20 454e 5350 9d5e d5db 0000 4407 4141 4c50
0004b30 0020 010f 4f07 0900 a003 0d79 b316 7faa
0004b40 454e 5350 9d5e d8db 0000 6513 464e 584c
0004b50 0020 0108 5613 0200 a303 b373 920e 3b83
0004b60 454e 5343 9d5e dbdb 0000 232e 4d59 2020
0004b70 0020 0111 222e 0c00 a403 5147 dbd7 3159
0004b80 454e 4250 9d5e e3db 0000 cf21 2046 2020
0004b90 0020 0120 cf21 0800 a603 5d7e 4e7a 7b14
0004ba0 454e 4243 9d5e e8db 0000 b611 4f47 474f
0004bb0 004c 0214 b611 0600 a903 4494 d07b 5417
0004bc0 454e 5343 9d5e ebdb 0000 b124 4d59 2020
0004bd0 0020 010d a024 0600 aa03 cb7e 67e6 6a01
0004be0 454e 4243 9d5e eedb 0000 561a 5345 2020
0004bf0 0020 0215 661a 0500 ab03 82af eae9 1054
0004c00 454e 5343 9d5e f3db 0000 122a 5053 2058
0004c10 0020 020a 222a 0500 ac03 e34b fb3c 9650
0004c20 454e 5350 9d5e fcdb 0000 5001 4d59 2020
0004c30 0020 0220 5301 0200 ae03 6e0b 3535 a7a2
0004c40 454e 5350 9d5e 00dc 0000 d623 5053 2059
0004c50 0020 0120 df23 0300 b003 82b4 cc3e bd3f
0004c60 454e 5343 9d5e 05dc 0000 4716 464e 584c
0004c70 0020 011a 4916 0300 b203 6b7b 400c 0880
0004c80 454e 4243 9d5e 0ddc 0000 ae39 2046 2020
0004c90 0020 011d bc39 0200 b403 f844 6f69 fff0
0004ca0 454e 4250 9d5e 11dc 0000 a11d 4d59 2020
0004cb0 0020 0114 951d 0600 b703 aa25 a4bb a393
0004cc0 454e 5350 9d5e 16dc 0000 623a 4f47 474f
0004cd0 004c 0113 583a 0800 b803 aacc 6c79 202f
0004ce0 454e 4250 9d5e 20dc 0000 b811 4f47 474f
0004cf0 004c 0207 be11 0300 b903 fbfa 1600 e83b
0004d00 454e 4243 9d5e 27dc 0000 381d 464e 584c
0004d10 0020 0223 3a1d 0c00 bb03 3fbe 99e3 799a
0004d20 6e59 5343 9d5e 2ddc 0000 f537 5053 2059
0004d30 0020 011d f837 0b00 bd03 4b13 70db 8839
0004d40 454e 5350 9d5e 32dc 0000 1e29 464e 584c
0004d50 0020 0222 0d29 0a00 be03 9f38 be1a 457b
0004d60 454e 5350 9d5e 3cdc 0000 ef02 5053 2059
0004d70 0020 0208 ff02 0600 c003 11e4 c343 713c
0004d80 454e 5343 9d5e 42dc 0000 e005 4f47 474f
0004d90 004c 021c e105 0d00 c203 dea3 c001 8fb0
0004da0 454e 4250 9d5e 48dc 0000 e212 5053 2058
0004db0 0020 0213 ea12 0700 c503 63ac c13f 0800
0004dc0 454e 4250 9d5e 4fdc 0000 1015 464e 584c
0004dd0 0020 0111 0515 0500 c803 4093 5149 1f68
0004de0 454e 5350 9d5e 5edc 0000 a934 4141 4c50
0004df0 0020 010b a034 0800 cc03 be2c a6a0 98a7
0004e00 454e 4243 9d5e 6fdc 0000 2027 4d59 2020
0004e10 0020 0204 1d27 0700 cf03 d100 ed3d de9e
0004e20 454e 5350 9d5e 73dc 0000 ac31 4d59 2020
0004e30 0020 0116 a531 0300 d003 8b84 3b6a b761
0004e40 454e 4250 9d5e 7bdc 0000 252e 4f47 474f
0004e50 004c 011e 132e 0500 d103 597c b04c 8ed2
0004e60 454e 4250 9d5e 89dc 0000 2429 4d59 2020
0004e70 0020 011d 2629 0800 d403 edc7 437a 71f2
0004e80 454e 5343 9d5e 8cdc 0000 463a 4f47 474f
0004e90 004c 0117 523a 0d00 d503 acbb e1f6 45a9
0004ea0 704e 4243 9d5e 93dc 0000 e50e 4f47 474f
0004eb0 004c 020a d30e 0400 d703 5ca7 b635 9a4c
0004ec0 454e 4243 9d5e 98dc 0000 502f 5345 2020
0004ed0 0020 0111 592f 0b00 da03 56e9 3dac a942
0004ee0 7351 4250 9d5e 9bdc 0000 472a 5053 2058
0004ef0 0020 010f 472a 0c00 dd03 4c15 25e7 37c9
0004f00 454e 4243 9d5e a5dc 0000 4501 5457 2049
0004f10 0020 0219 4601 0700 e003 f18e b4f3 b9c3
0004f20 454e 5350 9d5e aedc 0000 2f16 5345 2020
0004f30 0020 011d 2b16 0a00 e203 09e5 430b 9ee9
0004f40 454e 5350 9d5e b6dc 0000 dd11 5053 2058
0004f50 0020 0116 e311 0900 e403 1595 98a4 2672
0004f60 454e 5350 9d5e bfdc 0000 9d02 464e 584c
0004f70 0020 0122 9802 0600 e603 82ba 5102 8c19
0004f80 454e 5350 9d5e c8dc 0000 c237 5053 2059
0004f90 0020 0123 ba37 0200 e903 b1c0 faee ff22
0004fa0 454e 5343 9d5e d2dc 0000 2504 4d59 2020
0004fb0 0020 0205 2e04 0a00 ec03 f4bd 031c b8cf
0004fc0 454e 5350 9d5e d7dc 0000 3638 464e 584c
0004fd0 0020 0204 3f38 0c00 ed03 2a56 0211 f82c
0004fe0 6d55 4250 9d5e dadc 0000 7307 5457 2049
0004ff0 0020 0114 7107 0600 ed03 78bb 5fe8 f327
0005000 454e 4250 9d5e e2dc 0000 3610 5053 2058
0005010 0020 0222 2b10 0800 f003 73ef b6ab f881
0005020 454e 5343 9d5e e7dc 0000 5413 2046 2020
0005030 0020 0207 6013 0500 f403 3c68 e131 efbf
0005040 454e 4243 9d5e f8dc 0000 ad25 4f47 474f
0005050 004c 0111 c025 0400 fa03 4511 74e8 d0ff
0005060 454e 5343 9d5e ffdc 0000 e532 2046 2020
0005070 0020 0118 d432 0800 fb03 96bb 90cb 05fb
0005080 454e 4243 9d5e 06dd 0000 0b1c 2046 2020
0005090 0020 0107 051c 0400 fd03 9907 d9cb 3fb9
00050a0 454e 4243 9d5e 09dd 0000 4917 4d59 2020
00050b0 0020 0216 4817 0600 fd03 30f3 dae6 5cb1
00050c0 454e 5343 9d5e 13dd 0000 4e1a 5053 2058
00050d0 0020 0208 621a 0700 fe03 05aa 0bee 00bc
00050e0 454e 4243 9d5e 19dd 0000 cb00 4141 4c50
00050f0 0020 0217 dd00 0800 0004 d690 bdfa 8ff4
0005100 454e 5350 9d5e 22dd 0000 0b2e 5345 2020
0005110 0020 0216 002e 0800 0304 4d96 5367 bd9e
0005120 454e 4243 9d5e 2add 0000 b631 464e 584c
0005130 0020 021b ca31 0900 0504 9f2a 7ad7 e60d
0005140 454e 4250 9d5e 2fdd 0000 5033 4141 4c50
0005150 0020 011f 6433 0200 0504 7ee4 62f2 8729
0005160 454e 5350 9d5e 32dd 0000 2d21 2046 2020
0005170 0020 010b 2321 0d00 0704 6dd5 7cb3 29dc
0005180 454e 5343 9d5e 39dd 0000 e717 5457 2049
0005190 0020 0214 f117 0900 0a04 904b 74a0 70f9
00051a0 454e 5343 9d5e 3fdd 0000 9e29 5053 2058
00051b0 0020 010e a629 0700 0b04 944b a112 7fb2
00051c0 454e 5350 9d5e 42dd 0000 cb28 464e 584c
00051d0 0020 0117 ba28 0400 0d04 5f14 7a63 035e
00051e0 454e 4243 9d5e 4add 0000 b402 2046 2020
00051f0 0020 0219 ad02 0b00 0d04 9bf1 6d81 fba8
0005200 454e 5343 9d5e 58dd 0000 530e 4141 4c50
0005210 0020 011f 510e 0d00 1204 adbc 7a12 834b
0005220 454e 5343 9d5e 5ddd 0000 6d1f 4141 4c50
0005230 0020 0217 5f1f 0400 1504 2b7d fdf4 3d64
0005240 7642 4250 9d5e 62dd 0000 a60e 5457 2049
0005250 0020 0104 a40e 0300 1604 6171 b23e 3218
0005260 454e 4250 9d5e 6bdd 0000 8521 5053 2059
0005270 0020 0223 7b21 0a00 1904 e93c 28b7 75e3
0005280 454e 5350 9d5e 72dd 0000 a52b 5457 2049
0005290 0020 0218 ab2b 0500 1c04 56c7 82d8 f201
00052a0 454e 5350 9d5e 7cdd 0000 9010 5457 2049
00052b0 0020 0207 a210 0300 1f04 10c6 096b 916f
00052c0 454e 4243 9d5e 82dd 0000 bd36 5457 2049
00052d0 0020 0215 b836 0500 2204 d6b1 3a84 6618
00052e0 454e 4243 9d5e 87dd 0000 4f39 4f47 474f
00052f0 004c 0119 5839 0600 2404 414f 1711 dccd
0005300 454e 5350 9d5e 8bdd 0000 6b08 464e 584c
0005310 0020 0215 5b08 0600 2604 bfab 4ee2 cc6a
0005320 454e 5343 9d5e 94dd 0000 fc32 4141 4c50
0005330 0020 0209 f532 0d00 2704 1364 4245 50c2
0005340 454e 4243 9d5e 97dd 0000 df2e 464e 584c
0005350 0020 0217 cd2e 0700 2a04 654f c4bc c495
0005360 454e 4243 9d5e a1dd 0000 7106 4d59 2020
0005370 0020 0110 6306 0a00 2a04 79fd 2d9a 69a3
0005380 454e 5343 9d5e aadd 0000 4610 5053 2058
0005390 0020 0214 3a10 0200 2c04 e2a2 01ce 1588
00053a0 454e 5350 9d5e afdd 0000 710e 5053 2059
00053b0 0020 020a 810e 0700 2f04 16d7 8598 ae55
00053c0 454e 4243 9d5e b9dd 0000 0e20 4f47 474f
00053d0 004c 0203 1a20 0700 3204 105a 6d3e 481b
00053e0 454e 5350 9d5e bfdd 0000 bc15 5457 2049
00053f0 0020 0220 c715 0300 3304 24a9 16eb 25a8
0005400 454e 5350 9d5e c9dd 0000 0b18 464e 584c
0005410 0020 0216 1518 0c00 3504 f8ee 893c 69f2
0005420 454e 4250 9d5e d1dd 0000 e335 4141 4c50
0005430 0020 0214 f235 0600 3704 6245 dc5e c603
0005440 454e 4243 9d5e d4dd 0000 050e 4141 4c50
0005450 0020 011b 120e 0500 3904 bc21 8cd4 9055
0005460 454e 4243 9d5e dadd 0000 5904 5457 2049
0005470 0020 0219 5d04 0300 3b04 6a3b c093 0737
0005480 454e 4243 9d5e e1dd 0000 9401 5053 2058
0005490 0020 021e 9101 0d00 3e04 dd00 75cf c1c8
00054a0 454e 4243 9d5e eadd 0000 d002 464e 584c
00054b0 0020 0220 e102 0a00 3f04 02dc 2943 e2e1
00054c0 454e 4243 9d5e eedd 0000 4524 464e 584c
00054d0 0020 0123 5524 0500 4104 5b30 e4b2 c8bc
00054e0 454e 4250 9d5e f3dd 0000 1535 464e 584c
00054f0 0020 010b 1e35 0300 4204 c725 fbe1 53f2
0005500 454e 5343 9d5e fbdd 0000 7403 4f47 474f
0005510 004c 010b 8803 0300 4204 47ae 9ce2 f00c
0005520 454e 4250 9d5e fedd 0000 6810 4d59 2020
0005530 0020 0209 6010 0d00 4304 21c7 f861 3f7d
0005540 454e 5343 9d5e 04de 0000 832a 4d59 2020
0005550 0020 0211 772a 0500 4704 f004 90f5 618c
0005560 454e 4250 9d5e 07de 0000 3f21 2046 2020
0005570 0020 0105 4b21 0700 4804 6975 205f 52aa
0005580 454e 5343 9d5e 19de 0000 9a2a 4d59 2020
0005590 0020 021d 932a 0a00 4c04 5d94 d9a6 8f61
00055a0 454e 5350 9d5e 1fde 0000 f212 5053 2059
00055b0 0020 010e f512 0500 4f04 9cf4 06fc deaf
00055c0 454e 5350 9d5e 23de 0000 940f 4d59 2020
00055d0 0020 011d 910f 0500 5204 41f3 d421 c6d9
00055e0 454e 4250 9d5e 28de 0000 b41c 5053 2059
00055f0 0020 0214 a61c 0800 5404 1d2e 100d aa91
0005600 454e 5350 9d5e 2cde 0000 5029 4d59 2020
0005610 0020 010a 6329 0600 5604 c774 55ee f73f
0005620 454e 4250 9d5e 34de 0000 2101 4f47 474f
0005630 004c 0212 1d01 0900 5804 8758 5c5c 0cd3
0005640 454e 4250 9d5e 38de 0000 5d32 5053 2058
0005650 0020 0207 4a32 0900 5904 204d f3a8 5084
0005660 454e 5343 9d5e 46de 0000 6a02 5053 2058
0005670 0020 0123 7502 0500 6004 7ca5 d7d2 3859
0005680 6548 5350 9d5e 4cde 0000 9712 464e 584c
0005690 0020 0220 9612 0500 6204 9553 0d6c 38f6
00056a0 454e 4250 9d5e 56de 0000 cc20 5345 2020
00056b0 0020 0112 c520 0800 6404 bba7 3669 8b30
00056c0 454e 5350 9d5e 60de 0000 2c27 5053 2058
00056d0 0020 021d 3927 0500 6604 356d adb1 6ef5
00056e0 454e 5343 9d5e 6ade 0000 ee39 2046 2020
00056f0 0020 010e e739 0700 6904 a7f7 5144 f554
0005700 454e 4243 9d5e 6ede 0000 cf2b 464e 584c
0005710 0020 0116 d22b 0800 6d04 dd6e 0f20 93d5
0005720 454e 4243 9d5e 74de 0000 5a30 4d59 2020
0005730 0020 010a 5c30 0500 6d04 35d8 1aa7 567e
0005740 454e 5343 9d5e 7bde 0000 8919 5345 2020
0005750 0020 0209 8019 0400 6e04 dd71 87f4 2e05
0005760 454e 4243 9d5e 7fde 0000 9d1c 5053 2058
0005770 0020 010c 9b1c 0d00 6f04 43ae 89cf 98c8
0005780 454e 5350 9d5e 86de 0000 dd1e 4f47 474f
0005790 004c 0221 d61e 0900 7304 d20d 4f0e bd75
00057a0 454e 5343 9d5e 8ade 0000 1b2c 2046 2020
00057b0 0020 0111 182c 0800 7504 10e3 1153 409e
00057c0 454e 4243 9d5e 91de 0000 422f 4141 4c50
00057d0 0020 0210 402f 0400 7804 1068 7acc c35c
00057e0 454e 4243 9d5e 99de 0000 041e 5053 2059
00057f0 0020 010d 111e 0a00 7904 0ef6 2ee0 3b99
0005800 454e 5343 9d5e 9fde 0000 0a15 464e 584c
0005810 0020 020b 0915 0200 7c04 40c8 0044 ca61
0005820 454e 5343 9d5e a5de 0000 ad23 5457 2049
0005830 0020 020e bf23 0700 7d04 3b2c 6ef6 8faa
0005840 454e 4243 9d5e afde 0000 2601 4d59 2020
0005850 0020 011f 2e01 0500 7f04 bd3a 16a6 1f82
0005860 454e 5343 9d5e b4de 0000 f01e 5053 2059
0005870 0020 0115 f61e 0700 8104 8399 3196 8ead
0005880 454e 4243 9d5e bdde 0000 693a 4141 4c50
0005890 0020 020d 5d3a 0a00 8304 d5c7 a32c 3b45
00058a0 454e 5350 9d5e c0de 0000 1e22 464e 584c
00058b0 0020 0112 3122 0200 8604 3dd6 f5ff 3da6
00058c0 454e 4250 9d5e c3de 0000 6513 4141 4c50
00058d0 0020 0205 5313 0800 8804 96dc e0e3 5f4c
00058e0 454e 5343 9d5e ccde 0000 9638 5457 2049
00058f0 0020 020f a938 0600 8b04 72ba fa84 5599
0005900 454e 5343 9d5e d0de 0000 5824 5053 2058
0005910 0020 010c 6b24 0400 8c04 82e6 5b3f 964e
0005920 454e 4243 9d5e d5de 0000 e936 4141 4c50
0005930 0020 0204 fb36 0700 8e04 6e77 a0f4 3ef1
0005940 454e 5343 9d5e d8de 0000 9d37 5053 2058
0005950 0020 0117 9337 0200 9104 3dbc 368e b6c2
0005960 7a4b 5350 9d5e dede 0000 a51c 464e 584c
0005970 0020 0121 ae1c 0b00 9304 725e 47a9 e50b
0005980 454e 4250 9d5e e7de 0000 2d1b 5345 2020
0005990 0020 020f 2f1b 0c00 9604 4c5c bb63 c1e7
00059a0 454e 4243 9d5e edde 0000 d830 4d59 2020
00059b0 0020 011b d730 0600 9804 8a81 8335 c6b3
00059c0 454e 5350 9d5e f6de 0000 c228 464e 584c
00059d0 0020 011f d128 0200 9a04 28fb f765 bf09
00059e0 454e 5343 9d5e f9de 0000 f231 5457 2049
00059f0 0020 0118 ea31 0b00 9b04 2c69 7e4c 0bdb
0005a00 454e 5343 9d5e 01df 0000 7d2b 4141 4c50
0005a10 0020 0119 742b 0b00 9d04 c410 5f96 c200
0005a20 454e 4250 9d5e 0adf 0000 f838 5457 2049
0005a30 0020 0220 0439 0900 9e04 5f5d de2f e1f8
0005a40 454e 4243 9d5e 0ddf 0000 6407 464e 584c
0005a50 0020 021d 7507 0700 a104 5d87 d61a db72
0005a60 454e 4250 9d5e 1fdf 0000 6037 5053 2058
0005a70 0020 0107 7437 0500 a404 660d 0794 86a9
0005a80 454e 4250 9d5e 24df 0000 9915 2046 2020
0005a90 0020 0117 a415 0300 a604 10f6 448a 4d13
0005aa0 454e 4250 9d5e 2bdf 0000 b42c 4d59 2020
0005ab0 0020 010e b02c 0400 a904 934a 8df5 7ffa
0005ac0 454e 4250 9d5e 34df 0000 9622 2046 2020
0005ad0 0020 0116 9322 0500 aa04 a388 c31e 8626
0005ae0 454e 4243 9d5e 3ddf 0000 ee11 5345 2020
0005af0 0020 0215 f611 0a00 ad04 1966 4720 2c1a
0005b00 454e 5343 9d5e 40df 0000 f521 5053 2059
0005b10 0020 010e e521 0800 ad04 9eef 6609 996d
0005b20 454e 5350 9d5e 43df 0000 3501 2046 2020
0005b30 0020 0209 2c01 0b00 af04 98c5 3e8c 5419
0005b40 454e 4250 9d5e 4cdf 0000 9715 5345 2020
0005b50 0020 0109 8815 0400 b204 5104 ebaa 94cb
0005b60 454e 4250 9d5e 51df 0000 5029 464e 584c
0005b70 0020 020a 4329 0700 b504 6904 e14d ae40
0005b80 454e 5350 9d5e 5bdf 0000 e111 2046 2020
0005b90 0020 0217 d411 0200 b804 d1f8 9088 814b
0005ba0 454e 5343 9d5e 63df 0000 1c05 4141 4c50
0005bb0 0020 021b 2f05 0a00 b904 3f94 be1a f2e7
0005bc0 454e 5343 9d5e 69df 0000 bc18 5345 2020
0005bd0 0020 0203 c518 0200 bb04 b816 172a f001
0005be0 454e 4250 9d5e 6cdf 0000 a92f 5457 2049
0005bf0 0020 0104 9c2f 0500 be04 a944 1859 8474
0005c00 454e 4250 9d5e 6fdf 0000 6531 4f47 474f
0005c10 004c 0107 5a31 0800 be04 9fc8 1149 d00f
0005c20 634f 5350 9d5e 75df 0000 782c 5053 2058
0005c30 0020 0108 6e2c 0300 c104 0376 8c95 7860
0005c40 454e 4250 9d5e 78df 0000 0623 5053 2058
0005c50 0020 021a f422 0900 c204 d2a3 61e4 1f74
0005c60 454e 5343 9d5e 82df 0000 f625 5345 2020
0005c70 0020 0208 e825 0a00 c504 230a f9fc f664
0005c80 454e 5350 9d5e 85df 0000 472f 2046 2020
0005c90 0020 0213 4c2f 0300 c604 bd4f 0362 50a5
0005ca0 454e 4243 9d5e 8fdf 0000 9621 4d59 2020
0005cb0 0020 0106 8d21 0800 c804 7e34 3c6f 0e1c
0005cc0 454e 4243 9d5e 97df 0000 4409 464e 584c
0005cd0 0020 0112 5209 0700 ca04 8f5b 30d5 3c03
0005ce0 454e 5350 9d5e 9edf 0000 4a06 4141 4c50
0005cf0 0020 0222 4e06 0500 cb04 b2b9 a65a ff5a
0005d00 454e 4243 9d5e a7df 0000 f135 4d59 2020
0005d10 0020 0211 e235 0700 cd04 4d39 77cf 1f15
0005d20 454e 5343 9d5e b7df 0000 8025 4d59 2020
0005d30 0020 0113 8525 0800 d204 9542 f72e 7c08
0005d40 454e 5350 9d5e bbdf 0000 a801 464e 584c
0005d50 0020 0113 9901 0400 d304 b30b 35a7 1fbb
0005d60 6c49 4243 9d5e c3df 0000 9016 4f47 474f
0005d70 004c 0209 8516 0600 d304 c1af a529 f9a4
0005d80 454e 4243 9d5e c8df 0000 cc27 5053 2058
0005d90 0020 020e c027 0700 d504 11e7 ed60 a7bc
0005da0 454e 5343 9d5e d1df 0000 9d17 2046 2020
0005db0 0020 0213 8d17 0900 d904 fe45 09f0 da1f
0005dc0 454e 5343 9d5e d7df 0000 a726 5345 2020
0005dd0 0020 0208 9b26 0900 da04 2989 f0f5 d33b
0005de0 454e 4250 9d5e dbdf 0000 bd39 5053 2058
0005df0 0020 020c b139 0b00 dd04 05cf acbb 7d09
0005e00 454e 5350 9d5e e2df 0000 882f 4f47 474f
0005e10 004c 0211 872f 0600 e004 8419 79ad 75a1
0005e20 454e 5350 9d5e e5df 0000 1d21 5457 2049
0005e30 0020 0205 0e21 0400 e204 799f e387 0990
0005e40 454e 5350 9d5e efdf 0000 ab2e 5345 2020
0005e50 0020 011d a92e 0900 e304 e8b7 d5a8 c615
0005e60 454e 4250 9d5e f5df 0000 a037 5457 2049
0005e70 0020 0105 ad37 0800 e604 66c4 4f36 3f89
0005e80 454e 5343 9d5e fddf 0000 7924 4141 4c50
0005e90 0020 0112 6a24 0900 e804 e07d b9f1 e36b
0005ea0 454e 5350 9d5e 00e0 0000 f008 4f47 474f
0005eb0 004c 0221 ec08 0c00 ea04 72a0 7b74 b099
0005ec0 0000 0000 0000 0000 0000 0000 0000 0000
*
0005ed8
Target file /mnt/c/Users/Eric/Desktop/UIUC/SP 2021/ECE 411/Core-i9000/simulation/modelsim/memory.lst exists.
Assembled ../testcode/comp3.s and wrote memory contents to /mnt/c/Users/Eric/Desktop/UIUC/SP 2021/ECE 411/Core-i9000/simulation/modelsim/memory.lst
